

Microchip MPLAB XC8 Assembler V2.31 build 20201012212115 
                                                                                               Fri Aug 06 22:37:30 2021

Microchip MPLAB XC8 C Compiler v2.31 (Free license) build 20201012212115 Og1 
     1                           	processor	16F18857
     2                           	pagewidth 120
     3                           	opt	flic
     4                           	psect	idataCOMMON,global,class=CODE,delta=2,noexec
     5                           	psect	cinit,global,class=CODE,merge=1,delta=2
     6                           	psect	bssCOMMON,global,class=COMMON,space=1,delta=1,noexec
     7                           	psect	dataCOMMON,global,class=COMMON,space=1,delta=1,noexec
     8                           	psect	cstackCOMMON,global,class=COMMON,space=1,delta=1,noexec
     9                           	psect	maintext,global,class=CODE,merge=1,split=1,delta=2
    10                           	psect	text1,local,class=CODE,merge=1,delta=2
    11                           	psect	text2,local,class=CODE,merge=1,delta=2
    12                           	psect	config,global,abs,ovrld,class=CONFIG,space=4,delta=2,noexec
    13                           	dabs	1,0x7E,2
    14  0000                     
    15                           ; Version 2.35
    16                           ; Generated 13/04/2021 GMT
    17                           ; 
    18                           ; Copyright © 2021, Microchip Technology Inc. and its subsidiaries ("Microchip")
    19                           ; All rights reserved.
    20                           ; 
    21                           ; This software is developed by Microchip Technology Inc. and its subsidiaries ("Microch
      +                          ip").
    22                           ; 
    23                           ; Redistribution and use in source and binary forms, with or without modification, are
    24                           ; permitted provided that the following conditions are met:
    25                           ; 
    26                           ;     1. Redistributions of source code must retain the above copyright notice, this lis
      +                          t of
    27                           ;        conditions and the following disclaimer.
    28                           ; 
    29                           ;     2. Redistributions in binary form must reproduce the above copyright notice, this 
      +                          list
    30                           ;        of conditions and the following disclaimer in the documentation and/or other
    31                           ;        materials provided with the distribution. Publication is not required when
    32                           ;        this file is used in an embedded application.
    33                           ; 
    34                           ;     3. Microchip's name may not be used to endorse or promote products derived from th
      +                          is
    35                           ;        software without specific prior written permission.
    36                           ; 
    37                           ; THIS SOFTWARE IS PROVIDED BY MICROCHIP "AS IS" AND ANY EXPRESS OR IMPLIED WARRANTIES,
    38                           ; INCLUDING, BUT NOT LIMITED TO, THE IMPLIED WARRANTIES OF MERCHANTABILITY AND FITNESS F
      +                          OR
    39                           ; PURPOSE ARE DISCLAIMED.  IN NO EVENT SHALL MICROCHIP BE LIABLE FOR ANY DIRECT, INDIREC
      +                          T,
    40                           ; INCIDENTAL, SPECIAL, EXEMPLARY, OR CONSEQUENTIAL DAMAGES (INCLUDING BUT NOT LIMITED TO
    41                           ; PROCUREMENT OF SUBSTITUTE GOODS OR SERVICES; LOSS OF USE, DATA OR PROFITS; OR BUSINESS
    42                           ; INTERRUPTION) HOWSOEVER CAUSED AND ON ANY THEORY OF LIABILITY, WHETHER IN CONTRACT, ST
      +                          RICT
    43                           ; LIABILITY, OR TORT (INCLUDING NEGLIGENCE OR OTHERWISE) ARISING IN ANY WAY OUT OF THE U
      +                          SE OF
    44                           ; THIS SOFTWARE, EVEN IF ADVISED OF THE POSSIBILITY OF SUCH DAMAGE.
    45                           ; 
    46                           ; 
    47                           ; Code-generator required, PIC16F18857 Definitions
    48                           ; 
    49                           ; SFR Addresses
    50  0000                     	;# 
    51  0001                     	;# 
    52  0002                     	;# 
    53  0003                     	;# 
    54  0004                     	;# 
    55  0005                     	;# 
    56  0006                     	;# 
    57  0007                     	;# 
    58  0008                     	;# 
    59  0009                     	;# 
    60  000A                     	;# 
    61  000B                     	;# 
    62  000C                     	;# 
    63  000D                     	;# 
    64  000E                     	;# 
    65  0010                     	;# 
    66  0011                     	;# 
    67  0012                     	;# 
    68  0013                     	;# 
    69  0016                     	;# 
    70  0017                     	;# 
    71  0018                     	;# 
    72  001C                     	;# 
    73  001C                     	;# 
    74  001D                     	;# 
    75  001D                     	;# 
    76  001E                     	;# 
    77  001F                     	;# 
    78  008C                     	;# 
    79  008C                     	;# 
    80  008D                     	;# 
    81  008E                     	;# 
    82  008E                     	;# 
    83  008F                     	;# 
    84  0090                     	;# 
    85  0090                     	;# 
    86  0091                     	;# 
    87  0093                     	;# 
    88  0094                     	;# 
    89  0095                     	;# 
    90  0096                     	;# 
    91  0097                     	;# 
    92  0098                     	;# 
    93  0099                     	;# 
    94  009A                     	;# 
    95  009B                     	;# 
    96  009C                     	;# 
    97  009D                     	;# 
    98  009E                     	;# 
    99  010C                     	;# 
   100  010D                     	;# 
   101  010E                     	;# 
   102  010E                     	;# 
   103  010F                     	;# 
   104  0110                     	;# 
   105  0110                     	;# 
   106  0111                     	;# 
   107  0112                     	;# 
   108  0112                     	;# 
   109  0113                     	;# 
   110  0114                     	;# 
   111  0114                     	;# 
   112  0115                     	;# 
   113  0116                     	;# 
   114  0116                     	;# 
   115  0117                     	;# 
   116  0119                     	;# 
   117  0119                     	;# 
   118  0119                     	;# 
   119  011A                     	;# 
   120  011A                     	;# 
   121  011A                     	;# 
   122  011B                     	;# 
   123  011B                     	;# 
   124  011B                     	;# 
   125  011B                     	;# 
   126  011B                     	;# 
   127  011C                     	;# 
   128  011C                     	;# 
   129  011C                     	;# 
   130  011D                     	;# 
   131  011D                     	;# 
   132  011D                     	;# 
   133  011E                     	;# 
   134  011E                     	;# 
   135  011E                     	;# 
   136  011F                     	;# 
   137  011F                     	;# 
   138  011F                     	;# 
   139  011F                     	;# 
   140  011F                     	;# 
   141  018C                     	;# 
   142  018D                     	;# 
   143  018E                     	;# 
   144  018F                     	;# 
   145  0190                     	;# 
   146  0191                     	;# 
   147  0192                     	;# 
   148  0196                     	;# 
   149  0197                     	;# 
   150  0198                     	;# 
   151  0199                     	;# 
   152  019A                     	;# 
   153  019B                     	;# 
   154  019C                     	;# 
   155  020C                     	;# 
   156  020C                     	;# 
   157  020D                     	;# 
   158  020E                     	;# 
   159  020F                     	;# 
   160  020F                     	;# 
   161  0210                     	;# 
   162  0210                     	;# 
   163  0211                     	;# 
   164  0211                     	;# 
   165  0212                     	;# 
   166  0212                     	;# 
   167  0213                     	;# 
   168  0214                     	;# 
   169  0215                     	;# 
   170  0215                     	;# 
   171  0216                     	;# 
   172  0216                     	;# 
   173  0217                     	;# 
   174  0217                     	;# 
   175  0218                     	;# 
   176  0218                     	;# 
   177  0219                     	;# 
   178  021A                     	;# 
   179  021B                     	;# 
   180  021B                     	;# 
   181  021C                     	;# 
   182  021C                     	;# 
   183  021D                     	;# 
   184  021D                     	;# 
   185  021E                     	;# 
   186  021F                     	;# 
   187  028C                     	;# 
   188  028C                     	;# 
   189  028D                     	;# 
   190  028D                     	;# 
   191  028E                     	;# 
   192  028F                     	;# 
   193  0290                     	;# 
   194  0290                     	;# 
   195  0291                     	;# 
   196  0292                     	;# 
   197  0292                     	;# 
   198  0293                     	;# 
   199  0293                     	;# 
   200  0294                     	;# 
   201  0295                     	;# 
   202  0296                     	;# 
   203  0296                     	;# 
   204  0297                     	;# 
   205  0298                     	;# 
   206  0298                     	;# 
   207  0299                     	;# 
   208  0299                     	;# 
   209  029A                     	;# 
   210  029B                     	;# 
   211  029C                     	;# 
   212  029C                     	;# 
   213  029D                     	;# 
   214  030C                     	;# 
   215  030C                     	;# 
   216  030D                     	;# 
   217  030E                     	;# 
   218  030F                     	;# 
   219  0310                     	;# 
   220  0310                     	;# 
   221  0311                     	;# 
   222  0312                     	;# 
   223  0313                     	;# 
   224  0314                     	;# 
   225  0314                     	;# 
   226  0315                     	;# 
   227  0316                     	;# 
   228  0317                     	;# 
   229  0318                     	;# 
   230  0318                     	;# 
   231  0319                     	;# 
   232  031A                     	;# 
   233  031B                     	;# 
   234  031C                     	;# 
   235  031C                     	;# 
   236  031D                     	;# 
   237  031E                     	;# 
   238  031F                     	;# 
   239  038C                     	;# 
   240  038C                     	;# 
   241  038D                     	;# 
   242  038E                     	;# 
   243  0390                     	;# 
   244  0390                     	;# 
   245  0391                     	;# 
   246  0392                     	;# 
   247  040C                     	;# 
   248  040D                     	;# 
   249  040E                     	;# 
   250  040F                     	;# 
   251  0410                     	;# 
   252  0411                     	;# 
   253  0416                     	;# 
   254  0416                     	;# 
   255  0417                     	;# 
   256  0418                     	;# 
   257  0418                     	;# 
   258  0419                     	;# 
   259  041A                     	;# 
   260  041A                     	;# 
   261  041B                     	;# 
   262  041C                     	;# 
   263  041C                     	;# 
   264  041D                     	;# 
   265  041E                     	;# 
   266  041F                     	;# 
   267  048C                     	;# 
   268  048C                     	;# 
   269  048D                     	;# 
   270  048E                     	;# 
   271  048F                     	;# 
   272  048F                     	;# 
   273  0490                     	;# 
   274  0491                     	;# 
   275  0492                     	;# 
   276  0492                     	;# 
   277  0493                     	;# 
   278  0494                     	;# 
   279  0495                     	;# 
   280  0495                     	;# 
   281  0496                     	;# 
   282  0497                     	;# 
   283  0498                     	;# 
   284  0499                     	;# 
   285  049A                     	;# 
   286  049B                     	;# 
   287  049C                     	;# 
   288  049D                     	;# 
   289  050C                     	;# 
   290  050C                     	;# 
   291  050D                     	;# 
   292  050E                     	;# 
   293  050F                     	;# 
   294  050F                     	;# 
   295  0510                     	;# 
   296  0511                     	;# 
   297  0512                     	;# 
   298  0512                     	;# 
   299  0513                     	;# 
   300  0514                     	;# 
   301  0515                     	;# 
   302  0515                     	;# 
   303  0516                     	;# 
   304  0517                     	;# 
   305  0518                     	;# 
   306  0519                     	;# 
   307  051A                     	;# 
   308  051B                     	;# 
   309  051C                     	;# 
   310  051D                     	;# 
   311  058C                     	;# 
   312  058C                     	;# 
   313  058D                     	;# 
   314  058E                     	;# 
   315  058F                     	;# 
   316  058F                     	;# 
   317  0590                     	;# 
   318  0591                     	;# 
   319  0592                     	;# 
   320  0593                     	;# 
   321  060C                     	;# 
   322  060D                     	;# 
   323  060E                     	;# 
   324  060F                     	;# 
   325  0610                     	;# 
   326  0611                     	;# 
   327  0612                     	;# 
   328  0613                     	;# 
   329  0614                     	;# 
   330  0616                     	;# 
   331  0617                     	;# 
   332  0618                     	;# 
   333  0619                     	;# 
   334  061A                     	;# 
   335  061B                     	;# 
   336  061C                     	;# 
   337  061D                     	;# 
   338  061E                     	;# 
   339  068C                     	;# 
   340  068D                     	;# 
   341  068E                     	;# 
   342  068F                     	;# 
   343  0690                     	;# 
   344  0691                     	;# 
   345  0692                     	;# 
   346  0693                     	;# 
   347  0694                     	;# 
   348  070C                     	;# 
   349  070D                     	;# 
   350  070E                     	;# 
   351  070F                     	;# 
   352  0710                     	;# 
   353  0711                     	;# 
   354  0712                     	;# 
   355  0713                     	;# 
   356  0714                     	;# 
   357  0716                     	;# 
   358  0717                     	;# 
   359  0718                     	;# 
   360  0719                     	;# 
   361  071A                     	;# 
   362  071B                     	;# 
   363  071C                     	;# 
   364  071D                     	;# 
   365  071E                     	;# 
   366  0796                     	;# 
   367  0797                     	;# 
   368  0798                     	;# 
   369  0799                     	;# 
   370  079A                     	;# 
   371  079B                     	;# 
   372  080C                     	;# 
   373  080D                     	;# 
   374  080E                     	;# 
   375  080F                     	;# 
   376  0810                     	;# 
   377  0811                     	;# 
   378  0812                     	;# 
   379  0813                     	;# 
   380  0814                     	;# 
   381  081A                     	;# 
   382  081B                     	;# 
   383  081C                     	;# 
   384  081D                     	;# 
   385  081E                     	;# 
   386  081F                     	;# 
   387  088C                     	;# 
   388  088D                     	;# 
   389  088E                     	;# 
   390  088F                     	;# 
   391  0890                     	;# 
   392  0891                     	;# 
   393  0892                     	;# 
   394  0893                     	;# 
   395  0895                     	;# 
   396  0896                     	;# 
   397  0897                     	;# 
   398  0898                     	;# 
   399  0899                     	;# 
   400  089A                     	;# 
   401  089B                     	;# 
   402  090C                     	;# 
   403  090E                     	;# 
   404  090F                     	;# 
   405  091F                     	;# 
   406  098F                     	;# 
   407  098F                     	;# 
   408  0990                     	;# 
   409  0991                     	;# 
   410  0992                     	;# 
   411  0993                     	;# 
   412  0994                     	;# 
   413  0995                     	;# 
   414  0996                     	;# 
   415  0997                     	;# 
   416  1E0F                     	;# 
   417  1E10                     	;# 
   418  1E11                     	;# 
   419  1E12                     	;# 
   420  1E13                     	;# 
   421  1E14                     	;# 
   422  1E15                     	;# 
   423  1E16                     	;# 
   424  1E17                     	;# 
   425  1E18                     	;# 
   426  1E19                     	;# 
   427  1E1A                     	;# 
   428  1E1B                     	;# 
   429  1E1C                     	;# 
   430  1E1D                     	;# 
   431  1E1E                     	;# 
   432  1E1F                     	;# 
   433  1E20                     	;# 
   434  1E21                     	;# 
   435  1E22                     	;# 
   436  1E23                     	;# 
   437  1E24                     	;# 
   438  1E25                     	;# 
   439  1E26                     	;# 
   440  1E27                     	;# 
   441  1E28                     	;# 
   442  1E29                     	;# 
   443  1E2A                     	;# 
   444  1E2B                     	;# 
   445  1E2C                     	;# 
   446  1E2D                     	;# 
   447  1E2E                     	;# 
   448  1E2F                     	;# 
   449  1E30                     	;# 
   450  1E31                     	;# 
   451  1E32                     	;# 
   452  1E33                     	;# 
   453  1E34                     	;# 
   454  1E35                     	;# 
   455  1E36                     	;# 
   456  1E37                     	;# 
   457  1E8F                     	;# 
   458  1E90                     	;# 
   459  1E91                     	;# 
   460  1E92                     	;# 
   461  1E93                     	;# 
   462  1E94                     	;# 
   463  1E95                     	;# 
   464  1E96                     	;# 
   465  1E97                     	;# 
   466  1E9C                     	;# 
   467  1E9D                     	;# 
   468  1E9E                     	;# 
   469  1EA1                     	;# 
   470  1EA2                     	;# 
   471  1EA3                     	;# 
   472  1EA4                     	;# 
   473  1EA5                     	;# 
   474  1EA9                     	;# 
   475  1EAA                     	;# 
   476  1EAB                     	;# 
   477  1EAC                     	;# 
   478  1EB1                     	;# 
   479  1EB2                     	;# 
   480  1EB3                     	;# 
   481  1EB8                     	;# 
   482  1EB9                     	;# 
   483  1EBA                     	;# 
   484  1EBB                     	;# 
   485  1EBC                     	;# 
   486  1EBD                     	;# 
   487  1EBE                     	;# 
   488  1EC3                     	;# 
   489  1EC5                     	;# 
   490  1EC6                     	;# 
   491  1EC7                     	;# 
   492  1EC8                     	;# 
   493  1EC9                     	;# 
   494  1ECA                     	;# 
   495  1ECB                     	;# 
   496  1ECC                     	;# 
   497  1F10                     	;# 
   498  1F11                     	;# 
   499  1F12                     	;# 
   500  1F13                     	;# 
   501  1F14                     	;# 
   502  1F15                     	;# 
   503  1F16                     	;# 
   504  1F17                     	;# 
   505  1F18                     	;# 
   506  1F19                     	;# 
   507  1F1A                     	;# 
   508  1F1B                     	;# 
   509  1F1C                     	;# 
   510  1F1D                     	;# 
   511  1F1E                     	;# 
   512  1F1F                     	;# 
   513  1F20                     	;# 
   514  1F21                     	;# 
   515  1F22                     	;# 
   516  1F23                     	;# 
   517  1F24                     	;# 
   518  1F25                     	;# 
   519  1F26                     	;# 
   520  1F27                     	;# 
   521  1F38                     	;# 
   522  1F39                     	;# 
   523  1F3A                     	;# 
   524  1F3B                     	;# 
   525  1F3C                     	;# 
   526  1F3D                     	;# 
   527  1F3E                     	;# 
   528  1F3F                     	;# 
   529  1F40                     	;# 
   530  1F41                     	;# 
   531  1F43                     	;# 
   532  1F44                     	;# 
   533  1F45                     	;# 
   534  1F46                     	;# 
   535  1F47                     	;# 
   536  1F48                     	;# 
   537  1F49                     	;# 
   538  1F4A                     	;# 
   539  1F4B                     	;# 
   540  1F4C                     	;# 
   541  1F4E                     	;# 
   542  1F4F                     	;# 
   543  1F50                     	;# 
   544  1F51                     	;# 
   545  1F52                     	;# 
   546  1F53                     	;# 
   547  1F54                     	;# 
   548  1F55                     	;# 
   549  1F56                     	;# 
   550  1F57                     	;# 
   551  1F65                     	;# 
   552  1F68                     	;# 
   553  1F69                     	;# 
   554  1F6A                     	;# 
   555  1F6B                     	;# 
   556  1FE4                     	;# 
   557  1FE5                     	;# 
   558  1FE6                     	;# 
   559  1FE7                     	;# 
   560  1FE8                     	;# 
   561  1FE9                     	;# 
   562  1FEA                     	;# 
   563  1FEB                     	;# 
   564  1FED                     	;# 
   565  1FEE                     	;# 
   566  1FEF                     	;# 
   567  0000                     	;# 
   568  0001                     	;# 
   569  0002                     	;# 
   570  0003                     	;# 
   571  0004                     	;# 
   572  0005                     	;# 
   573  0006                     	;# 
   574  0007                     	;# 
   575  0008                     	;# 
   576  0009                     	;# 
   577  000A                     	;# 
   578  000B                     	;# 
   579  000C                     	;# 
   580  000D                     	;# 
   581  000E                     	;# 
   582  0010                     	;# 
   583  0011                     	;# 
   584  0012                     	;# 
   585  0013                     	;# 
   586  0016                     	;# 
   587  0017                     	;# 
   588  0018                     	;# 
   589  001C                     	;# 
   590  001C                     	;# 
   591  001D                     	;# 
   592  001D                     	;# 
   593  001E                     	;# 
   594  001F                     	;# 
   595  008C                     	;# 
   596  008C                     	;# 
   597  008D                     	;# 
   598  008E                     	;# 
   599  008E                     	;# 
   600  008F                     	;# 
   601  0090                     	;# 
   602  0090                     	;# 
   603  0091                     	;# 
   604  0093                     	;# 
   605  0094                     	;# 
   606  0095                     	;# 
   607  0096                     	;# 
   608  0097                     	;# 
   609  0098                     	;# 
   610  0099                     	;# 
   611  009A                     	;# 
   612  009B                     	;# 
   613  009C                     	;# 
   614  009D                     	;# 
   615  009E                     	;# 
   616  010C                     	;# 
   617  010D                     	;# 
   618  010E                     	;# 
   619  010E                     	;# 
   620  010F                     	;# 
   621  0110                     	;# 
   622  0110                     	;# 
   623  0111                     	;# 
   624  0112                     	;# 
   625  0112                     	;# 
   626  0113                     	;# 
   627  0114                     	;# 
   628  0114                     	;# 
   629  0115                     	;# 
   630  0116                     	;# 
   631  0116                     	;# 
   632  0117                     	;# 
   633  0119                     	;# 
   634  0119                     	;# 
   635  0119                     	;# 
   636  011A                     	;# 
   637  011A                     	;# 
   638  011A                     	;# 
   639  011B                     	;# 
   640  011B                     	;# 
   641  011B                     	;# 
   642  011B                     	;# 
   643  011B                     	;# 
   644  011C                     	;# 
   645  011C                     	;# 
   646  011C                     	;# 
   647  011D                     	;# 
   648  011D                     	;# 
   649  011D                     	;# 
   650  011E                     	;# 
   651  011E                     	;# 
   652  011E                     	;# 
   653  011F                     	;# 
   654  011F                     	;# 
   655  011F                     	;# 
   656  011F                     	;# 
   657  011F                     	;# 
   658  018C                     	;# 
   659  018D                     	;# 
   660  018E                     	;# 
   661  018F                     	;# 
   662  0190                     	;# 
   663  0191                     	;# 
   664  0192                     	;# 
   665  0196                     	;# 
   666  0197                     	;# 
   667  0198                     	;# 
   668  0199                     	;# 
   669  019A                     	;# 
   670  019B                     	;# 
   671  019C                     	;# 
   672  020C                     	;# 
   673  020C                     	;# 
   674  020D                     	;# 
   675  020E                     	;# 
   676  020F                     	;# 
   677  020F                     	;# 
   678  0210                     	;# 
   679  0210                     	;# 
   680  0211                     	;# 
   681  0211                     	;# 
   682  0212                     	;# 
   683  0212                     	;# 
   684  0213                     	;# 
   685  0214                     	;# 
   686  0215                     	;# 
   687  0215                     	;# 
   688  0216                     	;# 
   689  0216                     	;# 
   690  0217                     	;# 
   691  0217                     	;# 
   692  0218                     	;# 
   693  0218                     	;# 
   694  0219                     	;# 
   695  021A                     	;# 
   696  021B                     	;# 
   697  021B                     	;# 
   698  021C                     	;# 
   699  021C                     	;# 
   700  021D                     	;# 
   701  021D                     	;# 
   702  021E                     	;# 
   703  021F                     	;# 
   704  028C                     	;# 
   705  028C                     	;# 
   706  028D                     	;# 
   707  028D                     	;# 
   708  028E                     	;# 
   709  028F                     	;# 
   710  0290                     	;# 
   711  0290                     	;# 
   712  0291                     	;# 
   713  0292                     	;# 
   714  0292                     	;# 
   715  0293                     	;# 
   716  0293                     	;# 
   717  0294                     	;# 
   718  0295                     	;# 
   719  0296                     	;# 
   720  0296                     	;# 
   721  0297                     	;# 
   722  0298                     	;# 
   723  0298                     	;# 
   724  0299                     	;# 
   725  0299                     	;# 
   726  029A                     	;# 
   727  029B                     	;# 
   728  029C                     	;# 
   729  029C                     	;# 
   730  029D                     	;# 
   731  030C                     	;# 
   732  030C                     	;# 
   733  030D                     	;# 
   734  030E                     	;# 
   735  030F                     	;# 
   736  0310                     	;# 
   737  0310                     	;# 
   738  0311                     	;# 
   739  0312                     	;# 
   740  0313                     	;# 
   741  0314                     	;# 
   742  0314                     	;# 
   743  0315                     	;# 
   744  0316                     	;# 
   745  0317                     	;# 
   746  0318                     	;# 
   747  0318                     	;# 
   748  0319                     	;# 
   749  031A                     	;# 
   750  031B                     	;# 
   751  031C                     	;# 
   752  031C                     	;# 
   753  031D                     	;# 
   754  031E                     	;# 
   755  031F                     	;# 
   756  038C                     	;# 
   757  038C                     	;# 
   758  038D                     	;# 
   759  038E                     	;# 
   760  0390                     	;# 
   761  0390                     	;# 
   762  0391                     	;# 
   763  0392                     	;# 
   764  040C                     	;# 
   765  040D                     	;# 
   766  040E                     	;# 
   767  040F                     	;# 
   768  0410                     	;# 
   769  0411                     	;# 
   770  0416                     	;# 
   771  0416                     	;# 
   772  0417                     	;# 
   773  0418                     	;# 
   774  0418                     	;# 
   775  0419                     	;# 
   776  041A                     	;# 
   777  041A                     	;# 
   778  041B                     	;# 
   779  041C                     	;# 
   780  041C                     	;# 
   781  041D                     	;# 
   782  041E                     	;# 
   783  041F                     	;# 
   784  048C                     	;# 
   785  048C                     	;# 
   786  048D                     	;# 
   787  048E                     	;# 
   788  048F                     	;# 
   789  048F                     	;# 
   790  0490                     	;# 
   791  0491                     	;# 
   792  0492                     	;# 
   793  0492                     	;# 
   794  0493                     	;# 
   795  0494                     	;# 
   796  0495                     	;# 
   797  0495                     	;# 
   798  0496                     	;# 
   799  0497                     	;# 
   800  0498                     	;# 
   801  0499                     	;# 
   802  049A                     	;# 
   803  049B                     	;# 
   804  049C                     	;# 
   805  049D                     	;# 
   806  050C                     	;# 
   807  050C                     	;# 
   808  050D                     	;# 
   809  050E                     	;# 
   810  050F                     	;# 
   811  050F                     	;# 
   812  0510                     	;# 
   813  0511                     	;# 
   814  0512                     	;# 
   815  0512                     	;# 
   816  0513                     	;# 
   817  0514                     	;# 
   818  0515                     	;# 
   819  0515                     	;# 
   820  0516                     	;# 
   821  0517                     	;# 
   822  0518                     	;# 
   823  0519                     	;# 
   824  051A                     	;# 
   825  051B                     	;# 
   826  051C                     	;# 
   827  051D                     	;# 
   828  058C                     	;# 
   829  058C                     	;# 
   830  058D                     	;# 
   831  058E                     	;# 
   832  058F                     	;# 
   833  058F                     	;# 
   834  0590                     	;# 
   835  0591                     	;# 
   836  0592                     	;# 
   837  0593                     	;# 
   838  060C                     	;# 
   839  060D                     	;# 
   840  060E                     	;# 
   841  060F                     	;# 
   842  0610                     	;# 
   843  0611                     	;# 
   844  0612                     	;# 
   845  0613                     	;# 
   846  0614                     	;# 
   847  0616                     	;# 
   848  0617                     	;# 
   849  0618                     	;# 
   850  0619                     	;# 
   851  061A                     	;# 
   852  061B                     	;# 
   853  061C                     	;# 
   854  061D                     	;# 
   855  061E                     	;# 
   856  068C                     	;# 
   857  068D                     	;# 
   858  068E                     	;# 
   859  068F                     	;# 
   860  0690                     	;# 
   861  0691                     	;# 
   862  0692                     	;# 
   863  0693                     	;# 
   864  0694                     	;# 
   865  070C                     	;# 
   866  070D                     	;# 
   867  070E                     	;# 
   868  070F                     	;# 
   869  0710                     	;# 
   870  0711                     	;# 
   871  0712                     	;# 
   872  0713                     	;# 
   873  0714                     	;# 
   874  0716                     	;# 
   875  0717                     	;# 
   876  0718                     	;# 
   877  0719                     	;# 
   878  071A                     	;# 
   879  071B                     	;# 
   880  071C                     	;# 
   881  071D                     	;# 
   882  071E                     	;# 
   883  0796                     	;# 
   884  0797                     	;# 
   885  0798                     	;# 
   886  0799                     	;# 
   887  079A                     	;# 
   888  079B                     	;# 
   889  080C                     	;# 
   890  080D                     	;# 
   891  080E                     	;# 
   892  080F                     	;# 
   893  0810                     	;# 
   894  0811                     	;# 
   895  0812                     	;# 
   896  0813                     	;# 
   897  0814                     	;# 
   898  081A                     	;# 
   899  081B                     	;# 
   900  081C                     	;# 
   901  081D                     	;# 
   902  081E                     	;# 
   903  081F                     	;# 
   904  088C                     	;# 
   905  088D                     	;# 
   906  088E                     	;# 
   907  088F                     	;# 
   908  0890                     	;# 
   909  0891                     	;# 
   910  0892                     	;# 
   911  0893                     	;# 
   912  0895                     	;# 
   913  0896                     	;# 
   914  0897                     	;# 
   915  0898                     	;# 
   916  0899                     	;# 
   917  089A                     	;# 
   918  089B                     	;# 
   919  090C                     	;# 
   920  090E                     	;# 
   921  090F                     	;# 
   922  091F                     	;# 
   923  098F                     	;# 
   924  098F                     	;# 
   925  0990                     	;# 
   926  0991                     	;# 
   927  0992                     	;# 
   928  0993                     	;# 
   929  0994                     	;# 
   930  0995                     	;# 
   931  0996                     	;# 
   932  0997                     	;# 
   933  1E0F                     	;# 
   934  1E10                     	;# 
   935  1E11                     	;# 
   936  1E12                     	;# 
   937  1E13                     	;# 
   938  1E14                     	;# 
   939  1E15                     	;# 
   940  1E16                     	;# 
   941  1E17                     	;# 
   942  1E18                     	;# 
   943  1E19                     	;# 
   944  1E1A                     	;# 
   945  1E1B                     	;# 
   946  1E1C                     	;# 
   947  1E1D                     	;# 
   948  1E1E                     	;# 
   949  1E1F                     	;# 
   950  1E20                     	;# 
   951  1E21                     	;# 
   952  1E22                     	;# 
   953  1E23                     	;# 
   954  1E24                     	;# 
   955  1E25                     	;# 
   956  1E26                     	;# 
   957  1E27                     	;# 
   958  1E28                     	;# 
   959  1E29                     	;# 
   960  1E2A                     	;# 
   961  1E2B                     	;# 
   962  1E2C                     	;# 
   963  1E2D                     	;# 
   964  1E2E                     	;# 
   965  1E2F                     	;# 
   966  1E30                     	;# 
   967  1E31                     	;# 
   968  1E32                     	;# 
   969  1E33                     	;# 
   970  1E34                     	;# 
   971  1E35                     	;# 
   972  1E36                     	;# 
   973  1E37                     	;# 
   974  1E8F                     	;# 
   975  1E90                     	;# 
   976  1E91                     	;# 
   977  1E92                     	;# 
   978  1E93                     	;# 
   979  1E94                     	;# 
   980  1E95                     	;# 
   981  1E96                     	;# 
   982  1E97                     	;# 
   983  1E9C                     	;# 
   984  1E9D                     	;# 
   985  1E9E                     	;# 
   986  1EA1                     	;# 
   987  1EA2                     	;# 
   988  1EA3                     	;# 
   989  1EA4                     	;# 
   990  1EA5                     	;# 
   991  1EA9                     	;# 
   992  1EAA                     	;# 
   993  1EAB                     	;# 
   994  1EAC                     	;# 
   995  1EB1                     	;# 
   996  1EB2                     	;# 
   997  1EB3                     	;# 
   998  1EB8                     	;# 
   999  1EB9                     	;# 
  1000  1EBA                     	;# 
  1001  1EBB                     	;# 
  1002  1EBC                     	;# 
  1003  1EBD                     	;# 
  1004  1EBE                     	;# 
  1005  1EC3                     	;# 
  1006  1EC5                     	;# 
  1007  1EC6                     	;# 
  1008  1EC7                     	;# 
  1009  1EC8                     	;# 
  1010  1EC9                     	;# 
  1011  1ECA                     	;# 
  1012  1ECB                     	;# 
  1013  1ECC                     	;# 
  1014  1F10                     	;# 
  1015  1F11                     	;# 
  1016  1F12                     	;# 
  1017  1F13                     	;# 
  1018  1F14                     	;# 
  1019  1F15                     	;# 
  1020  1F16                     	;# 
  1021  1F17                     	;# 
  1022  1F18                     	;# 
  1023  1F19                     	;# 
  1024  1F1A                     	;# 
  1025  1F1B                     	;# 
  1026  1F1C                     	;# 
  1027  1F1D                     	;# 
  1028  1F1E                     	;# 
  1029  1F1F                     	;# 
  1030  1F20                     	;# 
  1031  1F21                     	;# 
  1032  1F22                     	;# 
  1033  1F23                     	;# 
  1034  1F24                     	;# 
  1035  1F25                     	;# 
  1036  1F26                     	;# 
  1037  1F27                     	;# 
  1038  1F38                     	;# 
  1039  1F39                     	;# 
  1040  1F3A                     	;# 
  1041  1F3B                     	;# 
  1042  1F3C                     	;# 
  1043  1F3D                     	;# 
  1044  1F3E                     	;# 
  1045  1F3F                     	;# 
  1046  1F40                     	;# 
  1047  1F41                     	;# 
  1048  1F43                     	;# 
  1049  1F44                     	;# 
  1050  1F45                     	;# 
  1051  1F46                     	;# 
  1052  1F47                     	;# 
  1053  1F48                     	;# 
  1054  1F49                     	;# 
  1055  1F4A                     	;# 
  1056  1F4B                     	;# 
  1057  1F4C                     	;# 
  1058  1F4E                     	;# 
  1059  1F4F                     	;# 
  1060  1F50                     	;# 
  1061  1F51                     	;# 
  1062  1F52                     	;# 
  1063  1F53                     	;# 
  1064  1F54                     	;# 
  1065  1F55                     	;# 
  1066  1F56                     	;# 
  1067  1F57                     	;# 
  1068  1F65                     	;# 
  1069  1F68                     	;# 
  1070  1F69                     	;# 
  1071  1F6A                     	;# 
  1072  1F6B                     	;# 
  1073  1FE4                     	;# 
  1074  1FE5                     	;# 
  1075  1FE6                     	;# 
  1076  1FE7                     	;# 
  1077  1FE8                     	;# 
  1078  1FE9                     	;# 
  1079  1FEA                     	;# 
  1080  1FEB                     	;# 
  1081  1FED                     	;# 
  1082  1FEE                     	;# 
  1083  1FEF                     	;# 
  1084                           
  1085                           	psect	idataCOMMON
  1086  0740                     __pidataCOMMON:
  1087                           
  1088                           ;initializer for forward1@F12376
  1089  0740  340C               	retlw	12
  1090  0741  3406               	retlw	6
  1091  0742  3403               	retlw	3
  1092  0743  3409               	retlw	9
  1093  0013                     _TRISC	set	19
  1094  0012                     _TRISB	set	18
  1095  0011                     _TRISA	set	17
  1096  00BB                     _LATB3	set	187
  1097  00B9                     _LATB1	set	185
  1098  00BA                     _LATB2	set	186
  1099  00B8                     _LATB0	set	184
  1100  011B                     _SP1BRG	set	283
  1101  011F                     _BAUD1CON	set	287
  1102  011D                     _RC1STA	set	285
  1103  011E                     _TX1STAbits	set	286
  1104  011E                     _TX1STA	set	286
  1105  018F                     _SSP1STAT	set	399
  1106  0190                     _SSP1CON1	set	400
  1107  0893                     _OSCFRQbits	set	2195
  1108  088D                     _OSCCON1bits	set	2189
  1109  1ECB                     _RXPPS	set	7883
  1110  1EC6                     _SSP1DATPPS	set	7878
  1111  1E8F                     _PPSLOCKbits	set	7823
  1112  1E8F                     _PPSLOCK	set	7823
  1113  1F21                     _RC1PPS	set	7969
  1114  1F25                     _RC5PPS	set	7973
  1115  1F23                     _RC3PPS	set	7971
  1116  1F4E                     _ANSELC	set	8014
  1117  1F43                     _ANSELB	set	8003
  1118  1F38                     _ANSELA	set	7992
  1119                           
  1120                           	psect	cinit
  1121  07EC                     start_initialization:	
  1122                           ; #config settings
  1123                           
  1124  07EC                     __initialization:
  1125                           
  1126                           ; Initialize objects allocated to COMMON
  1127  07EC  3187  2740  3187   	fcall	__pidataCOMMON	;fetch initializer
  1128  07EF  00F7               	movwf	__pdataCOMMON& (0+127)
  1129  07F0  3187  2741  3187   	fcall	__pidataCOMMON+1	;fetch initializer
  1130  07F3  00F8               	movwf	(__pdataCOMMON+1)& (0+127)
  1131  07F4  3187  2742  3187   	fcall	__pidataCOMMON+2	;fetch initializer
  1132  07F7  00F9               	movwf	(__pdataCOMMON+2)& (0+127)
  1133  07F8  3187  2743  3187   	fcall	__pidataCOMMON+3	;fetch initializer
  1134  07FB  00FA               	movwf	(__pdataCOMMON+3)& (0+127)
  1135                           
  1136                           ; Clear objects allocated to COMMON
  1137  07FC  01FB               	clrf	__pbssCOMMON& (0+127)
  1138  07FD                     end_of_initialization:	
  1139                           ;End of C runtime variable initialization code
  1140                           
  1141  07FD                     __end_of__initialization:
  1142  07FD  0140               	movlb	0
  1143  07FE  3187  2F44         	ljmp	_main	;jump to C main() function
  1144                           
  1145                           	psect	bssCOMMON
  1146  007B                     __pbssCOMMON:
  1147  007B                     forward1@cnt:
  1148  007B                     	ds	1
  1149                           
  1150                           	psect	dataCOMMON
  1151  0077                     __pdataCOMMON:
  1152  0077                     forward1@F12376:
  1153  0077                     	ds	4
  1154                           
  1155                           	psect	cstackCOMMON
  1156  0070                     __pcstackCOMMON:
  1157  0070                     ?_init:
  1158  0070                     ??_init:	
  1159                           ; 1 bytes @ 0x0
  1160                           
  1161  0070                     ?_forward1:	
  1162                           ; 1 bytes @ 0x0
  1163                           
  1164  0070                     ?_main:	
  1165                           ; 1 bytes @ 0x0
  1166                           
  1167  0070                     forward1@t:	
  1168                           ; 1 bytes @ 0x0
  1169                           
  1170                           
  1171                           ; 2 bytes @ 0x0
  1172  0070                     	ds	2
  1173  0072                     ??_forward1:
  1174                           
  1175                           ; 1 bytes @ 0x2
  1176  0072                     	ds	1
  1177  0073                     forward1@order:
  1178                           
  1179                           ; 4 bytes @ 0x3
  1180  0073                     	ds	4
  1181  0077                     ??_main:
  1182                           
  1183                           	psect	maintext
  1184  0744                     __pmaintext:	
  1185                           ; 1 bytes @ 0x7
  1186 ;;
  1187 ;;Main: autosize = 0, tempsize = 0, incstack = 0, save=0
  1188 ;;
  1189 ;; *************** function _main *****************
  1190 ;; Defined at:
  1191 ;;		line 75 in file "main.c"
  1192 ;; Parameters:    Size  Location     Type
  1193 ;;		None
  1194 ;; Auto vars:     Size  Location     Type
  1195 ;;		None
  1196 ;; Return value:  Size  Location     Type
  1197 ;;                  1    wreg      void 
  1198 ;; Registers used:
  1199 ;;		wreg, fsr1l, fsr1h, status,2, status,0, pclath, cstack
  1200 ;; Tracked objects:
  1201 ;;		On entry : B3F/0
  1202 ;;		On exit  : 0/0
  1203 ;;		Unchanged: 0/0
  1204 ;; Data sizes:     COMMON   BANK0   BANK1   BANK2   BANK3   BANK4   BANK5   BANK6   BANK7   BANK8   BANK9  BANK10  BANK1
      +1  BANK12  BANK13  BANK14  BANK15  BANK16  BANK17  BANK18  BANK19  BANK20  BANK21  BANK22  BANK23  BANK24  BANK25  BANK2
      +6  BANK27  BANK28  BANK29  BANK30  BANK31  BANK32  BANK33  BANK34  BANK35  BANK36  BANK37  BANK38  BANK39  BANK40  BANK4
      +1  BANK42  BANK43  BANK44  BANK45  BANK46  BANK47  BANK48  BANK49  BANK50
  1205 ;;      Params:         0       0       0       0       0       0       0       0       0       0       0       0       
      +0       0       0       0       0       0       0       0       0       0       0       0       0       0       0       
      +0       0       0       0       0       0       0       0       0       0       0       0       0       0       0       
      +0       0       0       0       0       0       0       0       0       0
  1206 ;;      Locals:         0       0       0       0       0       0       0       0       0       0       0       0       
      +0       0       0       0       0       0       0       0       0       0       0       0       0       0       0       
      +0       0       0       0       0       0       0       0       0       0       0       0       0       0       0       
      +0       0       0       0       0       0       0       0       0       0
  1207 ;;      Temps:          0       0       0       0       0       0       0       0       0       0       0       0       
      +0       0       0       0       0       0       0       0       0       0       0       0       0       0       0       
      +0       0       0       0       0       0       0       0       0       0       0       0       0       0       0       
      +0       0       0       0       0       0       0       0       0       0
  1208 ;;      Totals:         0       0       0       0       0       0       0       0       0       0       0       0       
      +0       0       0       0       0       0       0       0       0       0       0       0       0       0       0       
      +0       0       0       0       0       0       0       0       0       0       0       0       0       0       0       
      +0       0       0       0       0       0       0       0       0       0
  1209 ;;Total ram usage:        0 bytes
  1210 ;; Hardware stack levels required when called:    1
  1211 ;; This function calls:
  1212 ;;		_forward1
  1213 ;;		_init
  1214 ;; This function is called by:
  1215 ;;		Startup code after reset
  1216 ;; This function uses a non-reentrant model
  1217 ;;
  1218                           
  1219                           
  1220                           ;psect for function _main
  1221  0744                     _main:
  1222  0744                     l771:	
  1223                           ;incstack = 0
  1224                           ; Regs used in _main: [wreg+fsr1l+fsr1h+status,2+status,0+pclath+cstack]
  1225                           
  1226                           
  1227                           ;main.c: 76:     init();
  1228  0744  3187  2751  3187   	fcall	_init
  1229  0747                     l773:
  1230  0747  30D0               	movlw	208
  1231  0748  00F0               	movwf	forward1@t
  1232  0749  3007               	movlw	7
  1233  074A  00F1               	movwf	forward1@t+1
  1234  074B  3187  278F  3187   	fcall	_forward1
  1235  074E  2F47               	goto	l773
  1236  074F  3180  2802         	ljmp	start
  1237  0751                     __end_of_main:
  1238                           
  1239                           	psect	text1
  1240  0751                     __ptext1:	
  1241 ;; *************** function _init *****************
  1242 ;; Defined at:
  1243 ;;		line 81 in file "main.c"
  1244 ;; Parameters:    Size  Location     Type
  1245 ;;		None
  1246 ;; Auto vars:     Size  Location     Type
  1247 ;;		None
  1248 ;; Return value:  Size  Location     Type
  1249 ;;                  1    wreg      void 
  1250 ;; Registers used:
  1251 ;;		wreg, status,2, status,0
  1252 ;; Tracked objects:
  1253 ;;		On entry : 0/0
  1254 ;;		On exit  : 0/0
  1255 ;;		Unchanged: 0/0
  1256 ;; Data sizes:     COMMON   BANK0   BANK1   BANK2   BANK3   BANK4   BANK5   BANK6   BANK7   BANK8   BANK9  BANK10  BANK1
      +1  BANK12  BANK13  BANK14  BANK15  BANK16  BANK17  BANK18  BANK19  BANK20  BANK21  BANK22  BANK23  BANK24  BANK25  BANK2
      +6  BANK27  BANK28  BANK29  BANK30  BANK31  BANK32  BANK33  BANK34  BANK35  BANK36  BANK37  BANK38  BANK39  BANK40  BANK4
      +1  BANK42  BANK43  BANK44  BANK45  BANK46  BANK47  BANK48  BANK49  BANK50
  1257 ;;      Params:         0       0       0       0       0       0       0       0       0       0       0       0       
      +0       0       0       0       0       0       0       0       0       0       0       0       0       0       0       
      +0       0       0       0       0       0       0       0       0       0       0       0       0       0       0       
      +0       0       0       0       0       0       0       0       0       0
  1258 ;;      Locals:         0       0       0       0       0       0       0       0       0       0       0       0       
      +0       0       0       0       0       0       0       0       0       0       0       0       0       0       0       
      +0       0       0       0       0       0       0       0       0       0       0       0       0       0       0       
      +0       0       0       0       0       0       0       0       0       0
  1259 ;;      Temps:          0       0       0       0       0       0       0       0       0       0       0       0       
      +0       0       0       0       0       0       0       0       0       0       0       0       0       0       0       
      +0       0       0       0       0       0       0       0       0       0       0       0       0       0       0       
      +0       0       0       0       0       0       0       0       0       0
  1260 ;;      Totals:         0       0       0       0       0       0       0       0       0       0       0       0       
      +0       0       0       0       0       0       0       0       0       0       0       0       0       0       0       
      +0       0       0       0       0       0       0       0       0       0       0       0       0       0       0       
      +0       0       0       0       0       0       0       0       0       0
  1261 ;;Total ram usage:        0 bytes
  1262 ;; Hardware stack levels used:    1
  1263 ;; This function calls:
  1264 ;;		Nothing
  1265 ;; This function is called by:
  1266 ;;		_main
  1267 ;; This function uses a non-reentrant model
  1268 ;;
  1269                           
  1270                           
  1271                           ;psect for function _init
  1272  0751                     _init:
  1273  0751                     l701:	
  1274                           ;incstack = 0
  1275                           ; Regs used in _init: [wreg+status,2+status,0]
  1276                           
  1277                           
  1278                           ;main.c: 84:     OSCCON1bits.NOSC = 0b110;
  1279  0751  0151               	movlb	17	; select bank17
  1280  0752  080D               	movf	13,w	;volatile
  1281  0753  398F               	andlw	-113
  1282  0754  3860               	iorlw	96
  1283  0755  008D               	movwf	13	;volatile
  1284                           
  1285                           ;main.c: 85:     OSCCON1bits.NDIV = 0b0000;
  1286  0756  30F0               	movlw	-16
  1287  0757  058D               	andwf	13,f	;volatile
  1288                           
  1289                           ;main.c: 86:     OSCFRQbits.HFFRQ = 0b110;
  1290  0758  0813               	movf	19,w	;volatile
  1291  0759  39F8               	andlw	-8
  1292  075A  3806               	iorlw	6
  1293  075B  0093               	movwf	19	;volatile
  1294  075C                     l703:
  1295                           
  1296                           ;main.c: 89:     ANSELA = 0b00000000;
  1297  075C  017E               	movlb	62	; select bank62
  1298  075D  01B8               	clrf	56	;volatile
  1299  075E                     l705:
  1300                           
  1301                           ;main.c: 90:     ANSELB = 0b00000000;
  1302  075E  01C3               	clrf	67	;volatile
  1303  075F                     l707:
  1304                           
  1305                           ;main.c: 91:     ANSELC = 0b00000000;
  1306  075F  01CE               	clrf	78	;volatile
  1307  0760                     l709:
  1308                           
  1309                           ;main.c: 92:     TRISA = 0b00000000;
  1310  0760  0140               	movlb	0	; select bank0
  1311  0761  0191               	clrf	17	;volatile
  1312  0762                     l711:
  1313                           
  1314                           ;main.c: 93:     TRISB = 0b00000000;
  1315  0762  0192               	clrf	18	;volatile
  1316  0763                     l713:
  1317                           
  1318                           ;main.c: 94:     TRISC = 0b00010000;
  1319  0763  3010               	movlw	16
  1320  0764  0093               	movwf	19	;volatile
  1321  0765                     l715:
  1322                           
  1323                           ;main.c: 96:     SSP1CON1 = 0b00110000;
  1324  0765  3030               	movlw	48
  1325  0766  0143               	movlb	3	; select bank3
  1326  0767  0090               	movwf	16	;volatile
  1327  0768                     l717:
  1328                           
  1329                           ;main.c: 97:     SSP1STAT = 0b00000000;
  1330  0768  018F               	clrf	15	;volatile
  1331  0769                     l719:
  1332                           
  1333                           ;main.c: 105:     PPSLOCK = 0x55;
  1334  0769  3055               	movlw	85
  1335  076A  017D               	movlb	61	; select bank61
  1336  076B  008F               	movwf	15	;volsfr
  1337  076C                     l721:
  1338                           
  1339                           ;main.c: 106:     PPSLOCK = 0xAA;
  1340  076C  30AA               	movlw	170
  1341  076D  008F               	movwf	15	;volsfr
  1342  076E                     l723:
  1343                           
  1344                           ;main.c: 107:     PPSLOCKbits.PPSLOCKED = 0x00;
  1345  076E  100F               	bcf	15,0	;volsfr
  1346  076F                     l725:
  1347                           
  1348                           ;main.c: 114:     SSP1DATPPS = 0x14;
  1349  076F  3014               	movlw	20
  1350  0770  00C6               	movwf	70	;volatile
  1351  0771                     l727:
  1352                           
  1353                           ;main.c: 115:     RC3PPS = 0x14;
  1354  0771  3014               	movlw	20
  1355  0772  017E               	movlb	62	; select bank62
  1356  0773  00A3               	movwf	35	;volatile
  1357  0774                     l729:
  1358                           
  1359                           ;main.c: 116:     RC5PPS = 0x15;
  1360  0774  3015               	movlw	21
  1361  0775  00A5               	movwf	37	;volatile
  1362  0776                     l731:
  1363                           
  1364                           ;main.c: 118:     RXPPS = 0x10;
  1365  0776  3010               	movlw	16
  1366  0777  017D               	movlb	61	; select bank61
  1367  0778  00CB               	movwf	75	;volatile
  1368  0779                     l733:
  1369                           
  1370                           ;main.c: 119:     RC1PPS = 0x10;
  1371  0779  3010               	movlw	16
  1372  077A  017E               	movlb	62	; select bank62
  1373  077B  00A1               	movwf	33	;volatile
  1374  077C                     l735:
  1375                           
  1376                           ;main.c: 122:     PPSLOCK = 0x55;
  1377  077C  3055               	movlw	85
  1378  077D  017D               	movlb	61	; select bank61
  1379  077E  008F               	movwf	15	;volsfr
  1380  077F                     l737:
  1381                           
  1382                           ;main.c: 123:     PPSLOCK = 0xAA;
  1383  077F  30AA               	movlw	170
  1384  0780  008F               	movwf	15	;volsfr
  1385  0781                     l739:
  1386                           
  1387                           ;main.c: 124:     PPSLOCKbits.PPSLOCKED = 0x00;
  1388  0781  100F               	bcf	15,0	;volsfr
  1389  0782                     l741:
  1390                           
  1391                           ;main.c: 127:     TX1STA = 0x20;
  1392  0782  3020               	movlw	32
  1393  0783  0142               	movlb	2	; select bank2
  1394  0784  009E               	movwf	30	;volatile
  1395  0785                     l743:
  1396                           
  1397                           ;main.c: 128:     TX1STAbits.BRGH = 1;
  1398  0785  151E               	bsf	30,2	;volatile
  1399  0786                     l745:
  1400                           
  1401                           ;main.c: 129:     RC1STA = 0x90;
  1402  0786  3090               	movlw	144
  1403  0787  009D               	movwf	29	;volatile
  1404  0788                     l747:
  1405                           
  1406                           ;main.c: 130:     BAUD1CON = 0x08;
  1407  0788  3008               	movlw	8
  1408  0789  009F               	movwf	31	;volatile
  1409  078A                     l749:
  1410                           
  1411                           ;main.c: 131:     SP1BRG = 832;
  1412  078A  3003               	movlw	3
  1413  078B  009C               	movwf	28	;volatile
  1414  078C  3040               	movlw	64
  1415  078D  009B               	movwf	27	;volatile
  1416  078E                     l75:
  1417  078E  0008               	return
  1418  078F                     __end_of_init:
  1419                           
  1420                           	psect	text2
  1421  078F                     __ptext2:	
  1422 ;; *************** function _forward1 *****************
  1423 ;; Defined at:
  1424 ;;		line 60 in file "main.c"
  1425 ;; Parameters:    Size  Location     Type
  1426 ;;  t               2    0[COMMON] int 
  1427 ;; Auto vars:     Size  Location     Type
  1428 ;;  order           4    3[COMMON] unsigned char [4]
  1429 ;; Return value:  Size  Location     Type
  1430 ;;                  1    wreg      void 
  1431 ;; Registers used:
  1432 ;;		wreg, fsr1l, fsr1h, status,2, status,0
  1433 ;; Tracked objects:
  1434 ;;		On entry : 0/0
  1435 ;;		On exit  : 0/0
  1436 ;;		Unchanged: 0/0
  1437 ;; Data sizes:     COMMON   BANK0   BANK1   BANK2   BANK3   BANK4   BANK5   BANK6   BANK7   BANK8   BANK9  BANK10  BANK1
      +1  BANK12  BANK13  BANK14  BANK15  BANK16  BANK17  BANK18  BANK19  BANK20  BANK21  BANK22  BANK23  BANK24  BANK25  BANK2
      +6  BANK27  BANK28  BANK29  BANK30  BANK31  BANK32  BANK33  BANK34  BANK35  BANK36  BANK37  BANK38  BANK39  BANK40  BANK4
      +1  BANK42  BANK43  BANK44  BANK45  BANK46  BANK47  BANK48  BANK49  BANK50
  1438 ;;      Params:         2       0       0       0       0       0       0       0       0       0       0       0       
      +0       0       0       0       0       0       0       0       0       0       0       0       0       0       0       
      +0       0       0       0       0       0       0       0       0       0       0       0       0       0       0       
      +0       0       0       0       0       0       0       0       0       0
  1439 ;;      Locals:         4       0       0       0       0       0       0       0       0       0       0       0       
      +0       0       0       0       0       0       0       0       0       0       0       0       0       0       0       
      +0       0       0       0       0       0       0       0       0       0       0       0       0       0       0       
      +0       0       0       0       0       0       0       0       0       0
  1440 ;;      Temps:          1       0       0       0       0       0       0       0       0       0       0       0       
      +0       0       0       0       0       0       0       0       0       0       0       0       0       0       0       
      +0       0       0       0       0       0       0       0       0       0       0       0       0       0       0       
      +0       0       0       0       0       0       0       0       0       0
  1441 ;;      Totals:         7       0       0       0       0       0       0       0       0       0       0       0       
      +0       0       0       0       0       0       0       0       0       0       0       0       0       0       0       
      +0       0       0       0       0       0       0       0       0       0       0       0       0       0       0       
      +0       0       0       0       0       0       0       0       0       0
  1442 ;;Total ram usage:        7 bytes
  1443 ;; Hardware stack levels used:    1
  1444 ;; This function calls:
  1445 ;;		Nothing
  1446 ;; This function is called by:
  1447 ;;		_main
  1448 ;; This function uses a non-reentrant model
  1449 ;;
  1450                           
  1451                           
  1452                           ;psect for function _forward1
  1453  078F                     _forward1:
  1454  078F                     l755:	
  1455                           ;incstack = 0
  1456                           ; Regs used in _forward1: [wreg+fsr1l+fsr1h+status,2+status,0]
  1457                           
  1458                           
  1459                           ;main.c: 60: void forward1(int t);main.c: 61: {;main.c: 62:   static uint8_t cnt = 0;;ma
      +                          in.c: 63:   uint8_t order[4] = {12, 6, 3, 9};
  1460  078F  087A               	movf	forward1@F12376+3,w
  1461  0790  00F6               	movwf	forward1@order+3
  1462  0791  0879               	movf	forward1@F12376+2,w
  1463  0792  00F5               	movwf	forward1@order+2
  1464  0793  0878               	movf	forward1@F12376+1,w
  1465  0794  00F4               	movwf	forward1@order+1
  1466  0795  0877               	movf	forward1@F12376,w
  1467  0796  00F3               	movwf	forward1@order
  1468  0797                     l757:
  1469                           
  1470                           ;main.c: 65:   LATB0 = ((order[cnt] & 0x08) >> 3);
  1471  0797  087B               	movf	forward1@cnt,w
  1472  0798  3E73               	addlw	(low (forward1@order| 0))& (0+255)
  1473  0799  0086               	movwf	6
  1474  079A  0187               	clrf	7
  1475  079B  0801               	movf	1,w
  1476  079C  00F2               	movwf	??_forward1
  1477  079D  3003               	movlw	3
  1478  079E                     u135:
  1479  079E  36F2               	lsrf	??_forward1,f
  1480  079F  0B89               	decfsz	9,f
  1481  07A0  2F9E               	goto	u135
  1482  07A1  1872               	btfsc	??_forward1,0
  1483  07A2  2FA4               	goto	u141
  1484  07A3  2FA7               	goto	u140
  1485  07A4                     u141:
  1486  07A4  0140               	movlb	0	; select bank0
  1487  07A5  1417               	bsf	23,0	;volatile
  1488  07A6  2FA9               	goto	u154
  1489  07A7                     u140:
  1490  07A7  0140               	movlb	0	; select bank0
  1491  07A8  1017               	bcf	23,0	;volatile
  1492  07A9                     u154:
  1493  07A9                     l759:
  1494                           
  1495                           ;main.c: 66:   LATB2 = ((order[cnt] & 0x04) >> 2);
  1496  07A9  087B               	movf	forward1@cnt,w
  1497  07AA  3E73               	addlw	(low (forward1@order| 0))& (0+255)
  1498  07AB  0086               	movwf	6
  1499  07AC  0187               	clrf	7
  1500  07AD  0801               	movf	1,w
  1501  07AE  00F2               	movwf	??_forward1
  1502  07AF  3002               	movlw	2
  1503  07B0                     u165:
  1504  07B0  36F2               	lsrf	??_forward1,f
  1505  07B1  0B89               	decfsz	9,f
  1506  07B2  2FB0               	goto	u165
  1507  07B3  1872               	btfsc	??_forward1,0
  1508  07B4  2FB6               	goto	u171
  1509  07B5  2FB9               	goto	u170
  1510  07B6                     u171:
  1511  07B6  0140               	movlb	0	; select bank0
  1512  07B7  1517               	bsf	23,2	;volatile
  1513  07B8  2FBB               	goto	u184
  1514  07B9                     u170:
  1515  07B9  0140               	movlb	0	; select bank0
  1516  07BA  1117               	bcf	23,2	;volatile
  1517  07BB                     u184:
  1518  07BB                     l761:
  1519                           
  1520                           ;main.c: 67:   LATB1 = ((order[cnt] & 0x02) >> 1);
  1521  07BB  087B               	movf	forward1@cnt,w
  1522  07BC  3E73               	addlw	(low (forward1@order| 0))& (0+255)
  1523  07BD  0086               	movwf	6
  1524  07BE  0187               	clrf	7
  1525  07BF  0801               	movf	1,w
  1526  07C0  00F2               	movwf	??_forward1
  1527  07C1  3001               	movlw	1
  1528  07C2                     u195:
  1529  07C2  36F2               	lsrf	??_forward1,f
  1530  07C3  0B89               	decfsz	9,f
  1531  07C4  2FC2               	goto	u195
  1532  07C5  1872               	btfsc	??_forward1,0
  1533  07C6  2FC8               	goto	u201
  1534  07C7  2FCB               	goto	u200
  1535  07C8                     u201:
  1536  07C8  0140               	movlb	0	; select bank0
  1537  07C9  1497               	bsf	23,1	;volatile
  1538  07CA  2FCD               	goto	u214
  1539  07CB                     u200:
  1540  07CB  0140               	movlb	0	; select bank0
  1541  07CC  1097               	bcf	23,1	;volatile
  1542  07CD                     u214:
  1543  07CD                     l763:
  1544                           
  1545                           ;main.c: 68:   LATB3 = (order[cnt] & 0x01);
  1546  07CD  087B               	movf	forward1@cnt,w
  1547  07CE  3E73               	addlw	(low (forward1@order| 0))& (0+255)
  1548  07CF  0086               	movwf	6
  1549  07D0  0187               	clrf	7
  1550  07D1  1801               	btfsc	1,0
  1551  07D2  2FD4               	goto	u221
  1552  07D3  2FD7               	goto	u220
  1553  07D4                     u221:
  1554  07D4  0140               	movlb	0	; select bank0
  1555  07D5  1597               	bsf	23,3	;volatile
  1556  07D6  2FD9               	goto	u234
  1557  07D7                     u220:
  1558  07D7  0140               	movlb	0	; select bank0
  1559  07D8  1197               	bcf	23,3	;volatile
  1560  07D9                     u234:
  1561                           
  1562                           ;main.c: 69:   _delay((unsigned long)((3000)*(32000000/4000000.0)));
  1563  07D9  3020               	movlw	32
  1564  07DA  00F2               	movwf	??_forward1
  1565  07DB  302A               	movlw	42
  1566  07DC                     u257:
  1567  07DC  0B89               	decfsz	9,f
  1568  07DD  2FDC               	goto	u257
  1569  07DE  0BF2               	decfsz	??_forward1,f
  1570  07DF  2FDC               	goto	u257
  1571  07E0                     l765:
  1572                           
  1573                           ;main.c: 71:   cnt++;
  1574  07E0  3001               	movlw	1
  1575  07E1  00F2               	movwf	??_forward1
  1576  07E2  0872               	movf	??_forward1,w
  1577  07E3  07FB               	addwf	forward1@cnt,f
  1578  07E4                     l767:
  1579                           
  1580                           ;main.c: 72:   if(cnt > 3) cnt = 0;
  1581  07E4  3004               	movlw	4
  1582  07E5  027B               	subwf	forward1@cnt,w
  1583  07E6  1C03               	skipc
  1584  07E7  2FE9               	goto	u241
  1585  07E8  2FEA               	goto	u240
  1586  07E9                     u241:
  1587  07E9  2FEB               	goto	l64
  1588  07EA                     u240:
  1589  07EA                     l769:
  1590  07EA  01FB               	clrf	forward1@cnt
  1591  07EB                     l64:
  1592  07EB  0008               	return
  1593  07EC                     __end_of_forward1:
  1594  007E                     btemp	set	126	;btemp
  1595  007E                     wtemp0	set	126
  1596                           
  1597                           	psect	config
  1598                           
  1599                           ;Config register CONFIG1 @ 0x8007
  1600                           ;	External Oscillator mode selection bits
  1601                           ;	FEXTOSC = OFF, Oscillator not enabled
  1602                           ;	Power-up default value for COSC bits
  1603                           ;	RSTOSC = HFINT1, HFINTOSC (1MHz)
  1604                           ;	Clock Out Enable bit
  1605                           ;	CLKOUTEN = OFF, CLKOUT function is disabled; i/o or oscillator function on OSC2
  1606                           ;	Clock Switch Enable bit
  1607                           ;	CSWEN = ON, Writing to NOSC and NDIV is allowed
  1608                           ;	Fail-Safe Clock Monitor Enable bit
  1609                           ;	FCMEN = ON, FSCM timer enabled
  1610  8007                     	org	32775
  1611  8007  3FEC               	dw	16364
  1612                           
  1613                           ;Config register CONFIG2 @ 0x8008
  1614                           ;	Master Clear Enable bit
  1615                           ;	MCLRE = OFF, MCLR pin function is port defined function
  1616                           ;	Power-up Timer Enable bit
  1617                           ;	PWRTE = ON, PWRT enabled
  1618                           ;	Low-Power BOR enable bit
  1619                           ;	LPBOREN = OFF, ULPBOR disabled
  1620                           ;	Brown-out reset enable bits
  1621                           ;	BOREN = ON, Brown-out Reset Enabled, SBOREN bit is ignored
  1622                           ;	Brown-out Reset Voltage Selection
  1623                           ;	BORV = LO, Brown-out Reset Voltage (VBOR) set to 1.9V on LF, and 2.45V on F Devices
  1624                           ;	Zero-cross detect disable
  1625                           ;	ZCD = OFF, Zero-cross detect circuit is disabled at POR.
  1626                           ;	Peripheral Pin Select one-way control
  1627                           ;	PPS1WAY = ON, The PPSLOCK bit can be cleared and set only once in software
  1628                           ;	Stack Overflow/Underflow Reset Enable bit
  1629                           ;	STVREN = ON, Stack Overflow or Underflow will cause a reset
  1630                           ;	Background Debugger
  1631                           ;	DEBUG = OFF, Background Debugger disabled
  1632  8008                     	org	32776
  1633  8008  3FFC               	dw	16380
  1634                           
  1635                           ;Config register CONFIG3 @ 0x8009
  1636                           ;	WDT Period Select bits
  1637                           ;	WDTCPS = WDTCPS_31, Divider ratio 1:65536; software control of WDTPS
  1638                           ;	WDT operating mode
  1639                           ;	WDTE = OFF, WDT Disabled, SWDTEN is ignored
  1640                           ;	WDT Window Select bits
  1641                           ;	WDTCWS = WDTCWS_7, window always open (100%); software control; keyed access not requi
      +                          red
  1642                           ;	WDT input clock selector
  1643                           ;	WDTCCS = SC, Software Control
  1644  8009                     	org	32777
  1645  8009  3F9F               	dw	16287
  1646                           
  1647                           ;Config register CONFIG4 @ 0x800A
  1648                           ;	UserNVM self-write protection bits
  1649                           ;	WRT = OFF, Write protection off
  1650                           ;	Scanner Enable bit
  1651                           ;	SCANE = available, Scanner module is available for use
  1652                           ;	Low Voltage Programming Enable bit
  1653                           ;	LVP = OFF, High Voltage on MCLR/Vpp must be used for programming
  1654  800A                     	org	32778
  1655  800A  1FFF               	dw	8191
  1656                           
  1657                           ;Config register CONFIG5 @ 0x800B
  1658                           ;	UserNVM Program memory code protection bit
  1659                           ;	CP = OFF, Program Memory code protection disabled
  1660                           ;	DataNVM code protection bit
  1661                           ;	CPD = OFF, Data EEPROM code protection disabled
  1662  800B                     	org	32779
  1663  800B  3FFF               	dw	16383

Data Sizes:
    Strings     0
    Constant    0
    Data        4
    BSS         1
    Persistent  32
    Stack       0

Auto Spaces:
    Space          Size  Autos    Used
    COMMON           14      7      12
    BANK0            80      0       0
    BANK1            80      0       0
    BANK2            80      0       0
    BANK3            80      0       0
    BANK4            80      0       0
    BANK5            80      0       0
    BANK6            80      0       0
    BANK7            80      0       0
    BANK8            80      0       0
    BANK9            80      0       0
    BANK10           80      0       0
    BANK11           80      0       0
    BANK12           80      0       0
    BANK13           80      0       0
    BANK14           80      0       0
    BANK15           80      0       0
    BANK16           80      0       0
    BANK17           80      0       0
    BANK18           80      0       0
    BANK19           80      0       0
    BANK20           80      0       0
    BANK21           80      0       0
    BANK22           80      0       0
    BANK23           80      0       0
    BANK24           80      0       0
    BANK25           80      0       0
    BANK26           80      0       0
    BANK27           80      0       0
    BANK28           80      0       0
    BANK29           80      0       0
    BANK30           80      0       0
    BANK31           80      0       0
    BANK32           80      0       0
    BANK33           80      0       0
    BANK34           80      0       0
    BANK35           80      0       0
    BANK36           80      0       0
    BANK37           80      0       0
    BANK38           80      0       0
    BANK39           80      0       0
    BANK40           80      0       0
    BANK41           80      0       0
    BANK42           80      0       0
    BANK43           80      0       0
    BANK44           80      0       0
    BANK45           80      0       0
    BANK46           80      0       0
    BANK47           80      0       0
    BANK48           80      0       0
    BANK49           80      0       0
    BANK50           80      0       0

Pointer List with Targets:

    None.

Critical Paths under _main in COMMON

    _main->_forward1

Critical Paths under _main in BANK0

    None.

Critical Paths under _main in BANK1

    None.

Critical Paths under _main in BANK2

    None.

Critical Paths under _main in BANK3

    None.

Critical Paths under _main in BANK4

    None.

Critical Paths under _main in BANK5

    None.

Critical Paths under _main in BANK6

    None.

Critical Paths under _main in BANK7

    None.

Critical Paths under _main in BANK8

    None.

Critical Paths under _main in BANK9

    None.

Critical Paths under _main in BANK10

    None.

Critical Paths under _main in BANK11

    None.

Critical Paths under _main in BANK12

    None.

Critical Paths under _main in BANK13

    None.

Critical Paths under _main in BANK14

    None.

Critical Paths under _main in BANK15

    None.

Critical Paths under _main in BANK16

    None.

Critical Paths under _main in BANK17

    None.

Critical Paths under _main in BANK18

    None.

Critical Paths under _main in BANK19

    None.

Critical Paths under _main in BANK20

    None.

Critical Paths under _main in BANK21

    None.

Critical Paths under _main in BANK22

    None.

Critical Paths under _main in BANK23

    None.

Critical Paths under _main in BANK24

    None.

Critical Paths under _main in BANK25

    None.

Critical Paths under _main in BANK26

    None.

Critical Paths under _main in BANK27

    None.

Critical Paths under _main in BANK28

    None.

Critical Paths under _main in BANK29

    None.

Critical Paths under _main in BANK30

    None.

Critical Paths under _main in BANK31

    None.

Critical Paths under _main in BANK32

    None.

Critical Paths under _main in BANK33

    None.

Critical Paths under _main in BANK34

    None.

Critical Paths under _main in BANK35

    None.

Critical Paths under _main in BANK36

    None.

Critical Paths under _main in BANK37

    None.

Critical Paths under _main in BANK38

    None.

Critical Paths under _main in BANK39

    None.

Critical Paths under _main in BANK40

    None.

Critical Paths under _main in BANK41

    None.

Critical Paths under _main in BANK42

    None.

Critical Paths under _main in BANK43

    None.

Critical Paths under _main in BANK44

    None.

Critical Paths under _main in BANK45

    None.

Critical Paths under _main in BANK46

    None.

Critical Paths under _main in BANK47

    None.

Critical Paths under _main in BANK48

    None.

Critical Paths under _main in BANK49

    None.

Critical Paths under _main in BANK50

    None.

Call Graph Tables:

 ---------------------------------------------------------------------------------
 (Depth) Function   	        Calls       Base Space   Used Autos Params    Refs
 ---------------------------------------------------------------------------------
 (0) _main                                                 0     0      0     169
                           _forward1
                               _init
 ---------------------------------------------------------------------------------
 (1) _init                                                 0     0      0       0
 ---------------------------------------------------------------------------------
 (1) _forward1                                             7     5      2     169
                                              0 COMMON     7     5      2
 ---------------------------------------------------------------------------------
 Estimated maximum stack depth 1
 ---------------------------------------------------------------------------------

 Call Graph Graphs:

 _main (ROOT)
   _forward1
   _init

 Address spaces:
Name               Size   Autos  Total    Cost      Usage
BIGRAM             FF0      0       0       0        0.0%
EEDATA             100      0       0       0        0.0%
NULL                 0      0       0       0        0.0%
CODE                 0      0       0       0        0.0%
BITCOMMON            E      0       0       1        0.0%
BITSFR0              0      0       0       1        0.0%
SFR0                 0      0       0       1        0.0%
COMMON               E      7       C       2       85.7%
BITSFR1              0      0       0       2        0.0%
SFR1                 0      0       0       2        0.0%
BITSFR2              0      0       0       3        0.0%
SFR2                 0      0       0       3        0.0%
STACK                0      0       0       3        0.0%
BITBANK0            50      0       0       4        0.0%
BITSFR3              0      0       0       4        0.0%
SFR3                 0      0       0       4        0.0%
BANK0               50      0       0       5        0.0%
BITSFR4              0      0       0       5        0.0%
SFR4                 0      0       0       5        0.0%
BITBANK1            50      0       0       6        0.0%
BITSFR5              0      0       0       6        0.0%
SFR5                 0      0       0       6        0.0%
BANK1               50      0       0       7        0.0%
BITSFR6              0      0       0       7        0.0%
SFR6                 0      0       0       7        0.0%
BITBANK2            50      0       0       8        0.0%
BITSFR7              0      0       0       8        0.0%
SFR7                 0      0       0       8        0.0%
BANK2               50      0       0       9        0.0%
BITSFR8              0      0       0       9        0.0%
SFR8                 0      0       0       9        0.0%
BITBANK3            50      0       0      10        0.0%
BITSFR9              0      0       0      10        0.0%
SFR9                 0      0       0      10        0.0%
BANK3               50      0       0      11        0.0%
BITSFR10             0      0       0      11        0.0%
SFR10                0      0       0      11        0.0%
BITBANK4            50      0       0      12        0.0%
BITSFR11             0      0       0      12        0.0%
SFR11                0      0       0      12        0.0%
BANK4               50      0       0      13        0.0%
BITSFR12             0      0       0      13        0.0%
SFR12                0      0       0      13        0.0%
BITBANK5            50      0       0      14        0.0%
BITSFR13             0      0       0      14        0.0%
SFR13                0      0       0      14        0.0%
BANK5               50      0       0      15        0.0%
BITSFR14             0      0       0      15        0.0%
SFR14                0      0       0      15        0.0%
BITBANK6            50      0       0      16        0.0%
BITSFR15             0      0       0      16        0.0%
SFR15                0      0       0      16        0.0%
BANK6               50      0       0      17        0.0%
BITSFR16             0      0       0      17        0.0%
SFR16                0      0       0      17        0.0%
BITBANK7            50      0       0      18        0.0%
BITSFR17             0      0       0      18        0.0%
SFR17                0      0       0      18        0.0%
BANK7               50      0       0      19        0.0%
BITSFR18             0      0       0      19        0.0%
SFR18                0      0       0      19        0.0%
BITBANK8            50      0       0      20        0.0%
BITSFR19             0      0       0      20        0.0%
SFR19                0      0       0      20        0.0%
BANK8               50      0       0      21        0.0%
BITSFR20             0      0       0      21        0.0%
SFR20                0      0       0      21        0.0%
BITBANK9            50      0       0      22        0.0%
BITSFR21             0      0       0      22        0.0%
SFR21                0      0       0      22        0.0%
BANK9               50      0       0      23        0.0%
BITSFR22             0      0       0      23        0.0%
SFR22                0      0       0      23        0.0%
BITBANK10           50      0       0      24        0.0%
BITSFR23             0      0       0      24        0.0%
SFR23                0      0       0      24        0.0%
BANK10              50      0       0      25        0.0%
BITSFR24             0      0       0      25        0.0%
SFR24                0      0       0      25        0.0%
BITBANK11           50      0       0      26        0.0%
BITSFR25             0      0       0      26        0.0%
SFR25                0      0       0      26        0.0%
BANK11              50      0       0      27        0.0%
BITSFR26             0      0       0      27        0.0%
SFR26                0      0       0      27        0.0%
BITSFR27             0      0       0      28        0.0%
SFR27                0      0       0      28        0.0%
ABS                  0      0       C      28        0.0%
BITBANK12           50      0       0      29        0.0%
BITSFR28             0      0       0      29        0.0%
SFR28                0      0       0      29        0.0%
BANK12              50      0       0      30        0.0%
BITSFR29             0      0       0      30        0.0%
SFR29                0      0       0      30        0.0%
BITBANK13           50      0       0      31        0.0%
BITSFR30             0      0       0      31        0.0%
SFR30                0      0       0      31        0.0%
BANK13              50      0       0      32        0.0%
BITSFR31             0      0       0      32        0.0%
SFR31                0      0       0      32        0.0%
BITBANK14           50      0       0      33        0.0%
BITSFR32             0      0       0      33        0.0%
SFR32                0      0       0      33        0.0%
BANK14              50      0       0      34        0.0%
BITSFR33             0      0       0      34        0.0%
SFR33                0      0       0      34        0.0%
BITBANK15           50      0       0      35        0.0%
BITSFR34             0      0       0      35        0.0%
SFR34                0      0       0      35        0.0%
BANK15              50      0       0      36        0.0%
BITSFR35             0      0       0      36        0.0%
SFR35                0      0       0      36        0.0%
BITBANK16           50      0       0      37        0.0%
BITSFR36             0      0       0      37        0.0%
SFR36                0      0       0      37        0.0%
BANK16              50      0       0      38        0.0%
BITSFR37             0      0       0      38        0.0%
SFR37                0      0       0      38        0.0%
BITBANK17           50      0       0      39        0.0%
BITSFR38             0      0       0      39        0.0%
SFR38                0      0       0      39        0.0%
BANK17              50      0       0      40        0.0%
BITSFR39             0      0       0      40        0.0%
SFR39                0      0       0      40        0.0%
BITBANK18           50      0       0      41        0.0%
BITSFR40             0      0       0      41        0.0%
SFR40                0      0       0      41        0.0%
BANK18              50      0       0      42        0.0%
BITSFR41             0      0       0      42        0.0%
SFR41                0      0       0      42        0.0%
BITBANK19           50      0       0      43        0.0%
BITSFR42             0      0       0      43        0.0%
SFR42                0      0       0      43        0.0%
BANK19              50      0       0      44        0.0%
BITSFR43             0      0       0      44        0.0%
SFR43                0      0       0      44        0.0%
BITBANK20           50      0       0      45        0.0%
BITSFR44             0      0       0      45        0.0%
SFR44                0      0       0      45        0.0%
BANK20              50      0       0      46        0.0%
BITSFR45             0      0       0      46        0.0%
SFR45                0      0       0      46        0.0%
BITBANK21           50      0       0      47        0.0%
BITSFR46             0      0       0      47        0.0%
SFR46                0      0       0      47        0.0%
BANK21              50      0       0      48        0.0%
BITSFR47             0      0       0      48        0.0%
SFR47                0      0       0      48        0.0%
BITBANK22           50      0       0      49        0.0%
BITSFR48             0      0       0      49        0.0%
SFR48                0      0       0      49        0.0%
BANK22              50      0       0      50        0.0%
BITSFR49             0      0       0      50        0.0%
SFR49                0      0       0      50        0.0%
BITBANK23           50      0       0      51        0.0%
BITSFR50             0      0       0      51        0.0%
SFR50                0      0       0      51        0.0%
BANK23              50      0       0      52        0.0%
BITSFR51             0      0       0      52        0.0%
SFR51                0      0       0      52        0.0%
BITBANK24           50      0       0      53        0.0%
BITSFR52             0      0       0      53        0.0%
SFR52                0      0       0      53        0.0%
BANK24              50      0       0      54        0.0%
BITSFR53             0      0       0      54        0.0%
SFR53                0      0       0      54        0.0%
BITBANK25           50      0       0      55        0.0%
BITSFR54             0      0       0      55        0.0%
SFR54                0      0       0      55        0.0%
BANK25              50      0       0      56        0.0%
BITSFR55             0      0       0      56        0.0%
SFR55                0      0       0      56        0.0%
BITBANK26           50      0       0      57        0.0%
BITSFR56             0      0       0      57        0.0%
SFR56                0      0       0      57        0.0%
BANK26              50      0       0      58        0.0%
BITSFR57             0      0       0      58        0.0%
SFR57                0      0       0      58        0.0%
BITSFR58             0      0       0      59        0.0%
SFR58                0      0       0      59        0.0%
DATA                 0      0       C      59        0.0%
BITBANK27           50      0       0      60        0.0%
BITSFR59             0      0       0      60        0.0%
SFR59                0      0       0      60        0.0%
BANK27              50      0       0      61        0.0%
BITSFR60             0      0       0      61        0.0%
SFR60                0      0       0      61        0.0%
BITBANK28           50      0       0      62        0.0%
BITSFR61             0      0       0      62        0.0%
SFR61                0      0       0      62        0.0%
BANK28              50      0       0      63        0.0%
BITSFR62             0      0       0      63        0.0%
SFR62                0      0       0      63        0.0%
BITBANK29           50      0       0      64        0.0%
BITSFR63             0      0       0      64        0.0%
SFR63                0      0       0      64        0.0%
BANK29              50      0       0      65        0.0%
BITBANK30           50      0       0      66        0.0%
BANK30              50      0       0      67        0.0%
BITBANK31           50      0       0      68        0.0%
BANK31              50      0       0      69        0.0%
BITBANK32           50      0       0      70        0.0%
BANK32              50      0       0      71        0.0%
BITBANK33           50      0       0      72        0.0%
BANK33              50      0       0      73        0.0%
BITBANK34           50      0       0      74        0.0%
BANK34              50      0       0      75        0.0%
BITBANK35           50      0       0      76        0.0%
BANK35              50      0       0      77        0.0%
BITBANK36           50      0       0      78        0.0%
BANK36              50      0       0      79        0.0%
BITBANK37           50      0       0      80        0.0%
BANK37              50      0       0      81        0.0%
BITBANK38           50      0       0      82        0.0%
BANK38              50      0       0      83        0.0%
BITBANK39           50      0       0      84        0.0%
BANK39              50      0       0      85        0.0%
BITBANK40           50      0       0      86        0.0%
BANK40              50      0       0      87        0.0%
BITBANK41           50      0       0      88        0.0%
BANK41              50      0       0      89        0.0%
BITBANK42           50      0       0      90        0.0%
BANK42              50      0       0      91        0.0%
BITBANK43           50      0       0      92        0.0%
BANK43              50      0       0      93        0.0%
BITBANK44           50      0       0      94        0.0%
BANK44              50      0       0      95        0.0%
BITBANK45           50      0       0      96        0.0%
BANK45              50      0       0      97        0.0%
BITBANK46           50      0       0      98        0.0%
BANK46              50      0       0      99        0.0%
BITBANK47           50      0       0     100        0.0%
BANK47              50      0       0     101        0.0%
BITBANK48           50      0       0     102        0.0%
BANK48              50      0       0     103        0.0%
BITBANK49           50      0       0     104        0.0%
BANK49              50      0       0     105        0.0%
BITBANK50           50      0       0     106        0.0%
BANK50              50      0       0     107        0.0%


Microchip Technology PIC Macro Assembler V2.31 build 20201012212115 
Symbol Table                                                                                   Fri Aug 06 22:37:30 2021

                     l64 07EB                       l75 078E                      l701 0751  
                    l711 0762                      l703 075C                      l721 076C  
                    l713 0763                      l705 075E                      l731 0776  
                    l723 076E                      l715 0765                      l707 075F  
                    l741 0782                      l733 0779                      l725 076F  
                    l717 0768                      l709 0760                      l743 0785  
                    l735 077C                      l727 0771                      l719 0769  
                    l761 07BB                      l745 0786                      l737 077F  
                    l729 0774                      l763 07CD                      l755 078F  
                    l747 0788                      l739 0781                      l771 0744  
                    l765 07E0                      l757 0797                      l749 078A  
                    l773 0747                      l767 07E4                      l759 07A9  
                    l769 07EA                      u200 07CB                      u201 07C8  
                    u220 07D7                      u140 07A7                      u221 07D4  
                    u141 07A4                      u214 07CD                      u135 079E  
                    u240 07EA                      u241 07E9                      u234 07D9  
                    u170 07B9                      u154 07A9                      u171 07B6  
                    u165 07B0                      u184 07BB                      u257 07DC  
                    u195 07C2                      wreg 0009                     _main 0744  
                   _init 0751                     fsr1h 0007                     indf1 0001  
                   fsr1l 0006                     btemp 007E                     start 0002  
                  ?_main 0070                    ?_init 0070                    _LATB0 00B8  
                  _LATB1 00B9                    _LATB2 00BA                    _LATB3 00BB  
                  _TRISA 0011                    _TRISB 0012                    _TRISC 0013  
                  _RXPPS 1ECB                    wtemp0 007E          __initialization 07EC  
           __end_of_main 0751             __end_of_init 078F                   ??_main 0077  
                 ??_init 0070                   _ANSELA 1F38                   _ANSELB 1F43  
                 _ANSELC 1F4E                   _RC1PPS 1F21                   _RC1STA 011D  
                 _RC3PPS 1F23                   _RC5PPS 1F25                   _SP1BRG 011B  
                 _TX1STA 011E         __end_of_forward1 07EC              forward1@cnt 007B  
           __pdataCOMMON 0077  __end_of__initialization 07FD           __pcstackCOMMON 0070  
             __pmaintext 0744                  _PPSLOCK 1E8F                ?_forward1 0070  
                __ptext1 0751                  __ptext2 078F     end_of_initialization 07FD  
             ??_forward1 0072            __pidataCOMMON 0740      start_initialization 07EC  
            __pbssCOMMON 007B                ___latbits 0004        __size_of_forward1 005D  
         forward1@F12376 0077                 _BAUD1CON 011F                 _SSP1CON1 0190  
               _SSP1STAT 018F                forward1@t 0070              _OSCCON1bits 088D  
               _forward1 078F            __size_of_main 000D            __size_of_init 003E  
          forward1@order 0073              _PPSLOCKbits 1E8F               _OSCFRQbits 0893  
             _SSP1DATPPS 1EC6               _TX1STAbits 011E  
