

Microchip MPLAB XC8 Assembler V2.31 build 20201012212115 
                                                                                               Wed Aug 25 22:10:26 2021

Microchip MPLAB XC8 C Compiler v2.31 (Free license) build 20201012212115 Og1 
     1                           	processor	16F18857
     2                           	pagewidth 120
     3                           	opt	flic
     4                           	psect	stringtext1,global,class=STRCODE,delta=2,noexec
     5                           	psect	stringtext2,global,class=STRCODE,delta=2,noexec
     6                           	psect	stringtext3,global,class=STRCODE,delta=2,noexec
     7                           	psect	stringtext4,global,class=STRCODE,delta=2,noexec
     8                           	psect	stringtext5,global,class=STRCODE,delta=2,noexec
     9                           	psect	cinit,global,class=CODE,merge=1,delta=2
    10                           	psect	bssCOMMON,global,class=COMMON,space=1,delta=1,noexec
    11                           	psect	bssBANK0,global,class=BANK0,space=1,delta=1,noexec
    12                           	psect	clrtext,global,class=CODE,delta=2
    13                           	psect	cstackCOMMON,global,class=COMMON,space=1,delta=1,noexec
    14                           	psect	cstackBANK0,global,class=BANK0,space=1,delta=1,noexec
    15                           	psect	maintext,global,class=CODE,merge=1,split=1,delta=2
    16                           	psect	text1,local,class=CODE,merge=1,delta=2,group=3
    17                           	psect	text2,local,class=CODE,merge=1,delta=2,group=1
    18                           	psect	text3,local,class=CODE,merge=1,delta=2,group=1
    19                           	psect	text4,local,class=CODE,merge=1,delta=2,group=3
    20                           	psect	text5,local,class=CODE,merge=1,delta=2
    21                           	psect	text6,local,class=CODE,merge=1,delta=2
    22                           	psect	text7,local,class=CODE,merge=1,delta=2
    23                           	psect	text8,local,class=CODE,merge=1,delta=2
    24                           	psect	text9,local,class=CODE,merge=1,delta=2
    25                           	psect	text10,local,class=CODE,merge=1,delta=2
    26                           	psect	text11,local,class=CODE,merge=1,delta=2
    27                           	psect	text12,local,class=CODE,merge=1,delta=2
    28                           	psect	intentry,global,class=CODE,delta=2
    29                           	psect	config,global,abs,ovrld,class=CONFIG,space=4,delta=2,noexec
    30                           	dabs	1,0x7E,2
    31  0000                     
    32                           ; Version 2.35
    33                           ; Generated 13/04/2021 GMT
    34                           ; 
    35                           ; Copyright © 2021, Microchip Technology Inc. and its subsidiaries ("Microchip")
    36                           ; All rights reserved.
    37                           ; 
    38                           ; This software is developed by Microchip Technology Inc. and its subsidiaries ("Microch
      +                          ip").
    39                           ; 
    40                           ; Redistribution and use in source and binary forms, with or without modification, are
    41                           ; permitted provided that the following conditions are met:
    42                           ; 
    43                           ;     1. Redistributions of source code must retain the above copyright notice, this lis
      +                          t of
    44                           ;        conditions and the following disclaimer.
    45                           ; 
    46                           ;     2. Redistributions in binary form must reproduce the above copyright notice, this 
      +                          list
    47                           ;        of conditions and the following disclaimer in the documentation and/or other
    48                           ;        materials provided with the distribution. Publication is not required when
    49                           ;        this file is used in an embedded application.
    50                           ; 
    51                           ;     3. Microchip's name may not be used to endorse or promote products derived from th
      +                          is
    52                           ;        software without specific prior written permission.
    53                           ; 
    54                           ; THIS SOFTWARE IS PROVIDED BY MICROCHIP "AS IS" AND ANY EXPRESS OR IMPLIED WARRANTIES,
    55                           ; INCLUDING, BUT NOT LIMITED TO, THE IMPLIED WARRANTIES OF MERCHANTABILITY AND FITNESS F
      +                          OR
    56                           ; PURPOSE ARE DISCLAIMED.  IN NO EVENT SHALL MICROCHIP BE LIABLE FOR ANY DIRECT, INDIREC
      +                          T,
    57                           ; INCIDENTAL, SPECIAL, EXEMPLARY, OR CONSEQUENTIAL DAMAGES (INCLUDING BUT NOT LIMITED TO
    58                           ; PROCUREMENT OF SUBSTITUTE GOODS OR SERVICES; LOSS OF USE, DATA OR PROFITS; OR BUSINESS
    59                           ; INTERRUPTION) HOWSOEVER CAUSED AND ON ANY THEORY OF LIABILITY, WHETHER IN CONTRACT, ST
      +                          RICT
    60                           ; LIABILITY, OR TORT (INCLUDING NEGLIGENCE OR OTHERWISE) ARISING IN ANY WAY OUT OF THE U
      +                          SE OF
    61                           ; THIS SOFTWARE, EVEN IF ADVISED OF THE POSSIBILITY OF SUCH DAMAGE.
    62                           ; 
    63                           ; 
    64                           ; Code-generator required, PIC16F18857 Definitions
    65                           ; 
    66                           ; SFR Addresses
    67  0000                     	;# 
    68  0001                     	;# 
    69  0002                     	;# 
    70  0003                     	;# 
    71  0004                     	;# 
    72  0005                     	;# 
    73  0006                     	;# 
    74  0007                     	;# 
    75  0008                     	;# 
    76  0009                     	;# 
    77  000A                     	;# 
    78  000B                     	;# 
    79  000C                     	;# 
    80  000D                     	;# 
    81  000E                     	;# 
    82  0010                     	;# 
    83  0011                     	;# 
    84  0012                     	;# 
    85  0013                     	;# 
    86  0016                     	;# 
    87  0017                     	;# 
    88  0018                     	;# 
    89  001C                     	;# 
    90  001C                     	;# 
    91  001D                     	;# 
    92  001D                     	;# 
    93  001E                     	;# 
    94  001F                     	;# 
    95  008C                     	;# 
    96  008C                     	;# 
    97  008D                     	;# 
    98  008E                     	;# 
    99  008E                     	;# 
   100  008F                     	;# 
   101  0090                     	;# 
   102  0090                     	;# 
   103  0091                     	;# 
   104  0093                     	;# 
   105  0094                     	;# 
   106  0095                     	;# 
   107  0096                     	;# 
   108  0097                     	;# 
   109  0098                     	;# 
   110  0099                     	;# 
   111  009A                     	;# 
   112  009B                     	;# 
   113  009C                     	;# 
   114  009D                     	;# 
   115  009E                     	;# 
   116  010C                     	;# 
   117  010D                     	;# 
   118  010E                     	;# 
   119  010E                     	;# 
   120  010F                     	;# 
   121  0110                     	;# 
   122  0110                     	;# 
   123  0111                     	;# 
   124  0112                     	;# 
   125  0112                     	;# 
   126  0113                     	;# 
   127  0114                     	;# 
   128  0114                     	;# 
   129  0115                     	;# 
   130  0116                     	;# 
   131  0116                     	;# 
   132  0117                     	;# 
   133  0119                     	;# 
   134  0119                     	;# 
   135  0119                     	;# 
   136  011A                     	;# 
   137  011A                     	;# 
   138  011A                     	;# 
   139  011B                     	;# 
   140  011B                     	;# 
   141  011B                     	;# 
   142  011B                     	;# 
   143  011B                     	;# 
   144  011C                     	;# 
   145  011C                     	;# 
   146  011C                     	;# 
   147  011D                     	;# 
   148  011D                     	;# 
   149  011D                     	;# 
   150  011E                     	;# 
   151  011E                     	;# 
   152  011E                     	;# 
   153  011F                     	;# 
   154  011F                     	;# 
   155  011F                     	;# 
   156  011F                     	;# 
   157  011F                     	;# 
   158  018C                     	;# 
   159  018D                     	;# 
   160  018E                     	;# 
   161  018F                     	;# 
   162  0190                     	;# 
   163  0191                     	;# 
   164  0192                     	;# 
   165  0196                     	;# 
   166  0197                     	;# 
   167  0198                     	;# 
   168  0199                     	;# 
   169  019A                     	;# 
   170  019B                     	;# 
   171  019C                     	;# 
   172  020C                     	;# 
   173  020C                     	;# 
   174  020D                     	;# 
   175  020E                     	;# 
   176  020F                     	;# 
   177  020F                     	;# 
   178  0210                     	;# 
   179  0210                     	;# 
   180  0211                     	;# 
   181  0211                     	;# 
   182  0212                     	;# 
   183  0212                     	;# 
   184  0213                     	;# 
   185  0214                     	;# 
   186  0215                     	;# 
   187  0215                     	;# 
   188  0216                     	;# 
   189  0216                     	;# 
   190  0217                     	;# 
   191  0217                     	;# 
   192  0218                     	;# 
   193  0218                     	;# 
   194  0219                     	;# 
   195  021A                     	;# 
   196  021B                     	;# 
   197  021B                     	;# 
   198  021C                     	;# 
   199  021C                     	;# 
   200  021D                     	;# 
   201  021D                     	;# 
   202  021E                     	;# 
   203  021F                     	;# 
   204  028C                     	;# 
   205  028C                     	;# 
   206  028D                     	;# 
   207  028D                     	;# 
   208  028E                     	;# 
   209  028F                     	;# 
   210  0290                     	;# 
   211  0290                     	;# 
   212  0291                     	;# 
   213  0292                     	;# 
   214  0292                     	;# 
   215  0293                     	;# 
   216  0293                     	;# 
   217  0294                     	;# 
   218  0295                     	;# 
   219  0296                     	;# 
   220  0296                     	;# 
   221  0297                     	;# 
   222  0298                     	;# 
   223  0298                     	;# 
   224  0299                     	;# 
   225  0299                     	;# 
   226  029A                     	;# 
   227  029B                     	;# 
   228  029C                     	;# 
   229  029C                     	;# 
   230  029D                     	;# 
   231  030C                     	;# 
   232  030C                     	;# 
   233  030D                     	;# 
   234  030E                     	;# 
   235  030F                     	;# 
   236  0310                     	;# 
   237  0310                     	;# 
   238  0311                     	;# 
   239  0312                     	;# 
   240  0313                     	;# 
   241  0314                     	;# 
   242  0314                     	;# 
   243  0315                     	;# 
   244  0316                     	;# 
   245  0317                     	;# 
   246  0318                     	;# 
   247  0318                     	;# 
   248  0319                     	;# 
   249  031A                     	;# 
   250  031B                     	;# 
   251  031C                     	;# 
   252  031C                     	;# 
   253  031D                     	;# 
   254  031E                     	;# 
   255  031F                     	;# 
   256  038C                     	;# 
   257  038C                     	;# 
   258  038D                     	;# 
   259  038E                     	;# 
   260  0390                     	;# 
   261  0390                     	;# 
   262  0391                     	;# 
   263  0392                     	;# 
   264  040C                     	;# 
   265  040D                     	;# 
   266  040E                     	;# 
   267  040F                     	;# 
   268  0410                     	;# 
   269  0411                     	;# 
   270  0416                     	;# 
   271  0416                     	;# 
   272  0417                     	;# 
   273  0418                     	;# 
   274  0418                     	;# 
   275  0419                     	;# 
   276  041A                     	;# 
   277  041A                     	;# 
   278  041B                     	;# 
   279  041C                     	;# 
   280  041C                     	;# 
   281  041D                     	;# 
   282  041E                     	;# 
   283  041F                     	;# 
   284  048C                     	;# 
   285  048C                     	;# 
   286  048D                     	;# 
   287  048E                     	;# 
   288  048F                     	;# 
   289  048F                     	;# 
   290  0490                     	;# 
   291  0491                     	;# 
   292  0492                     	;# 
   293  0492                     	;# 
   294  0493                     	;# 
   295  0494                     	;# 
   296  0495                     	;# 
   297  0495                     	;# 
   298  0496                     	;# 
   299  0497                     	;# 
   300  0498                     	;# 
   301  0499                     	;# 
   302  049A                     	;# 
   303  049B                     	;# 
   304  049C                     	;# 
   305  049D                     	;# 
   306  050C                     	;# 
   307  050C                     	;# 
   308  050D                     	;# 
   309  050E                     	;# 
   310  050F                     	;# 
   311  050F                     	;# 
   312  0510                     	;# 
   313  0511                     	;# 
   314  0512                     	;# 
   315  0512                     	;# 
   316  0513                     	;# 
   317  0514                     	;# 
   318  0515                     	;# 
   319  0515                     	;# 
   320  0516                     	;# 
   321  0517                     	;# 
   322  0518                     	;# 
   323  0519                     	;# 
   324  051A                     	;# 
   325  051B                     	;# 
   326  051C                     	;# 
   327  051D                     	;# 
   328  058C                     	;# 
   329  058C                     	;# 
   330  058D                     	;# 
   331  058E                     	;# 
   332  058F                     	;# 
   333  058F                     	;# 
   334  0590                     	;# 
   335  0591                     	;# 
   336  0592                     	;# 
   337  0593                     	;# 
   338  060C                     	;# 
   339  060D                     	;# 
   340  060E                     	;# 
   341  060F                     	;# 
   342  0610                     	;# 
   343  0611                     	;# 
   344  0612                     	;# 
   345  0613                     	;# 
   346  0614                     	;# 
   347  0616                     	;# 
   348  0617                     	;# 
   349  0618                     	;# 
   350  0619                     	;# 
   351  061A                     	;# 
   352  061B                     	;# 
   353  061C                     	;# 
   354  061D                     	;# 
   355  061E                     	;# 
   356  068C                     	;# 
   357  068D                     	;# 
   358  068E                     	;# 
   359  068F                     	;# 
   360  0690                     	;# 
   361  0691                     	;# 
   362  0692                     	;# 
   363  0693                     	;# 
   364  0694                     	;# 
   365  070C                     	;# 
   366  070D                     	;# 
   367  070E                     	;# 
   368  070F                     	;# 
   369  0710                     	;# 
   370  0711                     	;# 
   371  0712                     	;# 
   372  0713                     	;# 
   373  0714                     	;# 
   374  0716                     	;# 
   375  0717                     	;# 
   376  0718                     	;# 
   377  0719                     	;# 
   378  071A                     	;# 
   379  071B                     	;# 
   380  071C                     	;# 
   381  071D                     	;# 
   382  071E                     	;# 
   383  0796                     	;# 
   384  0797                     	;# 
   385  0798                     	;# 
   386  0799                     	;# 
   387  079A                     	;# 
   388  079B                     	;# 
   389  080C                     	;# 
   390  080D                     	;# 
   391  080E                     	;# 
   392  080F                     	;# 
   393  0810                     	;# 
   394  0811                     	;# 
   395  0812                     	;# 
   396  0813                     	;# 
   397  0814                     	;# 
   398  081A                     	;# 
   399  081B                     	;# 
   400  081C                     	;# 
   401  081D                     	;# 
   402  081E                     	;# 
   403  081F                     	;# 
   404  088C                     	;# 
   405  088D                     	;# 
   406  088E                     	;# 
   407  088F                     	;# 
   408  0890                     	;# 
   409  0891                     	;# 
   410  0892                     	;# 
   411  0893                     	;# 
   412  0895                     	;# 
   413  0896                     	;# 
   414  0897                     	;# 
   415  0898                     	;# 
   416  0899                     	;# 
   417  089A                     	;# 
   418  089B                     	;# 
   419  090C                     	;# 
   420  090E                     	;# 
   421  090F                     	;# 
   422  091F                     	;# 
   423  098F                     	;# 
   424  098F                     	;# 
   425  0990                     	;# 
   426  0991                     	;# 
   427  0992                     	;# 
   428  0993                     	;# 
   429  0994                     	;# 
   430  0995                     	;# 
   431  0996                     	;# 
   432  0997                     	;# 
   433  1E0F                     	;# 
   434  1E10                     	;# 
   435  1E11                     	;# 
   436  1E12                     	;# 
   437  1E13                     	;# 
   438  1E14                     	;# 
   439  1E15                     	;# 
   440  1E16                     	;# 
   441  1E17                     	;# 
   442  1E18                     	;# 
   443  1E19                     	;# 
   444  1E1A                     	;# 
   445  1E1B                     	;# 
   446  1E1C                     	;# 
   447  1E1D                     	;# 
   448  1E1E                     	;# 
   449  1E1F                     	;# 
   450  1E20                     	;# 
   451  1E21                     	;# 
   452  1E22                     	;# 
   453  1E23                     	;# 
   454  1E24                     	;# 
   455  1E25                     	;# 
   456  1E26                     	;# 
   457  1E27                     	;# 
   458  1E28                     	;# 
   459  1E29                     	;# 
   460  1E2A                     	;# 
   461  1E2B                     	;# 
   462  1E2C                     	;# 
   463  1E2D                     	;# 
   464  1E2E                     	;# 
   465  1E2F                     	;# 
   466  1E30                     	;# 
   467  1E31                     	;# 
   468  1E32                     	;# 
   469  1E33                     	;# 
   470  1E34                     	;# 
   471  1E35                     	;# 
   472  1E36                     	;# 
   473  1E37                     	;# 
   474  1E8F                     	;# 
   475  1E90                     	;# 
   476  1E91                     	;# 
   477  1E92                     	;# 
   478  1E93                     	;# 
   479  1E94                     	;# 
   480  1E95                     	;# 
   481  1E96                     	;# 
   482  1E97                     	;# 
   483  1E9C                     	;# 
   484  1E9D                     	;# 
   485  1E9E                     	;# 
   486  1EA1                     	;# 
   487  1EA2                     	;# 
   488  1EA3                     	;# 
   489  1EA4                     	;# 
   490  1EA5                     	;# 
   491  1EA9                     	;# 
   492  1EAA                     	;# 
   493  1EAB                     	;# 
   494  1EAC                     	;# 
   495  1EB1                     	;# 
   496  1EB2                     	;# 
   497  1EB3                     	;# 
   498  1EB8                     	;# 
   499  1EB9                     	;# 
   500  1EBA                     	;# 
   501  1EBB                     	;# 
   502  1EBC                     	;# 
   503  1EBD                     	;# 
   504  1EBE                     	;# 
   505  1EC3                     	;# 
   506  1EC5                     	;# 
   507  1EC6                     	;# 
   508  1EC7                     	;# 
   509  1EC8                     	;# 
   510  1EC9                     	;# 
   511  1ECA                     	;# 
   512  1ECB                     	;# 
   513  1ECC                     	;# 
   514  1F10                     	;# 
   515  1F11                     	;# 
   516  1F12                     	;# 
   517  1F13                     	;# 
   518  1F14                     	;# 
   519  1F15                     	;# 
   520  1F16                     	;# 
   521  1F17                     	;# 
   522  1F18                     	;# 
   523  1F19                     	;# 
   524  1F1A                     	;# 
   525  1F1B                     	;# 
   526  1F1C                     	;# 
   527  1F1D                     	;# 
   528  1F1E                     	;# 
   529  1F1F                     	;# 
   530  1F20                     	;# 
   531  1F21                     	;# 
   532  1F22                     	;# 
   533  1F23                     	;# 
   534  1F24                     	;# 
   535  1F25                     	;# 
   536  1F26                     	;# 
   537  1F27                     	;# 
   538  1F38                     	;# 
   539  1F39                     	;# 
   540  1F3A                     	;# 
   541  1F3B                     	;# 
   542  1F3C                     	;# 
   543  1F3D                     	;# 
   544  1F3E                     	;# 
   545  1F3F                     	;# 
   546  1F40                     	;# 
   547  1F41                     	;# 
   548  1F43                     	;# 
   549  1F44                     	;# 
   550  1F45                     	;# 
   551  1F46                     	;# 
   552  1F47                     	;# 
   553  1F48                     	;# 
   554  1F49                     	;# 
   555  1F4A                     	;# 
   556  1F4B                     	;# 
   557  1F4C                     	;# 
   558  1F4E                     	;# 
   559  1F4F                     	;# 
   560  1F50                     	;# 
   561  1F51                     	;# 
   562  1F52                     	;# 
   563  1F53                     	;# 
   564  1F54                     	;# 
   565  1F55                     	;# 
   566  1F56                     	;# 
   567  1F57                     	;# 
   568  1F65                     	;# 
   569  1F68                     	;# 
   570  1F69                     	;# 
   571  1F6A                     	;# 
   572  1F6B                     	;# 
   573  1FE4                     	;# 
   574  1FE5                     	;# 
   575  1FE6                     	;# 
   576  1FE7                     	;# 
   577  1FE8                     	;# 
   578  1FE9                     	;# 
   579  1FEA                     	;# 
   580  1FEB                     	;# 
   581  1FED                     	;# 
   582  1FEE                     	;# 
   583  1FEF                     	;# 
   584  0000                     	;# 
   585  0001                     	;# 
   586  0002                     	;# 
   587  0003                     	;# 
   588  0004                     	;# 
   589  0005                     	;# 
   590  0006                     	;# 
   591  0007                     	;# 
   592  0008                     	;# 
   593  0009                     	;# 
   594  000A                     	;# 
   595  000B                     	;# 
   596  000C                     	;# 
   597  000D                     	;# 
   598  000E                     	;# 
   599  0010                     	;# 
   600  0011                     	;# 
   601  0012                     	;# 
   602  0013                     	;# 
   603  0016                     	;# 
   604  0017                     	;# 
   605  0018                     	;# 
   606  001C                     	;# 
   607  001C                     	;# 
   608  001D                     	;# 
   609  001D                     	;# 
   610  001E                     	;# 
   611  001F                     	;# 
   612  008C                     	;# 
   613  008C                     	;# 
   614  008D                     	;# 
   615  008E                     	;# 
   616  008E                     	;# 
   617  008F                     	;# 
   618  0090                     	;# 
   619  0090                     	;# 
   620  0091                     	;# 
   621  0093                     	;# 
   622  0094                     	;# 
   623  0095                     	;# 
   624  0096                     	;# 
   625  0097                     	;# 
   626  0098                     	;# 
   627  0099                     	;# 
   628  009A                     	;# 
   629  009B                     	;# 
   630  009C                     	;# 
   631  009D                     	;# 
   632  009E                     	;# 
   633  010C                     	;# 
   634  010D                     	;# 
   635  010E                     	;# 
   636  010E                     	;# 
   637  010F                     	;# 
   638  0110                     	;# 
   639  0110                     	;# 
   640  0111                     	;# 
   641  0112                     	;# 
   642  0112                     	;# 
   643  0113                     	;# 
   644  0114                     	;# 
   645  0114                     	;# 
   646  0115                     	;# 
   647  0116                     	;# 
   648  0116                     	;# 
   649  0117                     	;# 
   650  0119                     	;# 
   651  0119                     	;# 
   652  0119                     	;# 
   653  011A                     	;# 
   654  011A                     	;# 
   655  011A                     	;# 
   656  011B                     	;# 
   657  011B                     	;# 
   658  011B                     	;# 
   659  011B                     	;# 
   660  011B                     	;# 
   661  011C                     	;# 
   662  011C                     	;# 
   663  011C                     	;# 
   664  011D                     	;# 
   665  011D                     	;# 
   666  011D                     	;# 
   667  011E                     	;# 
   668  011E                     	;# 
   669  011E                     	;# 
   670  011F                     	;# 
   671  011F                     	;# 
   672  011F                     	;# 
   673  011F                     	;# 
   674  011F                     	;# 
   675  018C                     	;# 
   676  018D                     	;# 
   677  018E                     	;# 
   678  018F                     	;# 
   679  0190                     	;# 
   680  0191                     	;# 
   681  0192                     	;# 
   682  0196                     	;# 
   683  0197                     	;# 
   684  0198                     	;# 
   685  0199                     	;# 
   686  019A                     	;# 
   687  019B                     	;# 
   688  019C                     	;# 
   689  020C                     	;# 
   690  020C                     	;# 
   691  020D                     	;# 
   692  020E                     	;# 
   693  020F                     	;# 
   694  020F                     	;# 
   695  0210                     	;# 
   696  0210                     	;# 
   697  0211                     	;# 
   698  0211                     	;# 
   699  0212                     	;# 
   700  0212                     	;# 
   701  0213                     	;# 
   702  0214                     	;# 
   703  0215                     	;# 
   704  0215                     	;# 
   705  0216                     	;# 
   706  0216                     	;# 
   707  0217                     	;# 
   708  0217                     	;# 
   709  0218                     	;# 
   710  0218                     	;# 
   711  0219                     	;# 
   712  021A                     	;# 
   713  021B                     	;# 
   714  021B                     	;# 
   715  021C                     	;# 
   716  021C                     	;# 
   717  021D                     	;# 
   718  021D                     	;# 
   719  021E                     	;# 
   720  021F                     	;# 
   721  028C                     	;# 
   722  028C                     	;# 
   723  028D                     	;# 
   724  028D                     	;# 
   725  028E                     	;# 
   726  028F                     	;# 
   727  0290                     	;# 
   728  0290                     	;# 
   729  0291                     	;# 
   730  0292                     	;# 
   731  0292                     	;# 
   732  0293                     	;# 
   733  0293                     	;# 
   734  0294                     	;# 
   735  0295                     	;# 
   736  0296                     	;# 
   737  0296                     	;# 
   738  0297                     	;# 
   739  0298                     	;# 
   740  0298                     	;# 
   741  0299                     	;# 
   742  0299                     	;# 
   743  029A                     	;# 
   744  029B                     	;# 
   745  029C                     	;# 
   746  029C                     	;# 
   747  029D                     	;# 
   748  030C                     	;# 
   749  030C                     	;# 
   750  030D                     	;# 
   751  030E                     	;# 
   752  030F                     	;# 
   753  0310                     	;# 
   754  0310                     	;# 
   755  0311                     	;# 
   756  0312                     	;# 
   757  0313                     	;# 
   758  0314                     	;# 
   759  0314                     	;# 
   760  0315                     	;# 
   761  0316                     	;# 
   762  0317                     	;# 
   763  0318                     	;# 
   764  0318                     	;# 
   765  0319                     	;# 
   766  031A                     	;# 
   767  031B                     	;# 
   768  031C                     	;# 
   769  031C                     	;# 
   770  031D                     	;# 
   771  031E                     	;# 
   772  031F                     	;# 
   773  038C                     	;# 
   774  038C                     	;# 
   775  038D                     	;# 
   776  038E                     	;# 
   777  0390                     	;# 
   778  0390                     	;# 
   779  0391                     	;# 
   780  0392                     	;# 
   781  040C                     	;# 
   782  040D                     	;# 
   783  040E                     	;# 
   784  040F                     	;# 
   785  0410                     	;# 
   786  0411                     	;# 
   787  0416                     	;# 
   788  0416                     	;# 
   789  0417                     	;# 
   790  0418                     	;# 
   791  0418                     	;# 
   792  0419                     	;# 
   793  041A                     	;# 
   794  041A                     	;# 
   795  041B                     	;# 
   796  041C                     	;# 
   797  041C                     	;# 
   798  041D                     	;# 
   799  041E                     	;# 
   800  041F                     	;# 
   801  048C                     	;# 
   802  048C                     	;# 
   803  048D                     	;# 
   804  048E                     	;# 
   805  048F                     	;# 
   806  048F                     	;# 
   807  0490                     	;# 
   808  0491                     	;# 
   809  0492                     	;# 
   810  0492                     	;# 
   811  0493                     	;# 
   812  0494                     	;# 
   813  0495                     	;# 
   814  0495                     	;# 
   815  0496                     	;# 
   816  0497                     	;# 
   817  0498                     	;# 
   818  0499                     	;# 
   819  049A                     	;# 
   820  049B                     	;# 
   821  049C                     	;# 
   822  049D                     	;# 
   823  050C                     	;# 
   824  050C                     	;# 
   825  050D                     	;# 
   826  050E                     	;# 
   827  050F                     	;# 
   828  050F                     	;# 
   829  0510                     	;# 
   830  0511                     	;# 
   831  0512                     	;# 
   832  0512                     	;# 
   833  0513                     	;# 
   834  0514                     	;# 
   835  0515                     	;# 
   836  0515                     	;# 
   837  0516                     	;# 
   838  0517                     	;# 
   839  0518                     	;# 
   840  0519                     	;# 
   841  051A                     	;# 
   842  051B                     	;# 
   843  051C                     	;# 
   844  051D                     	;# 
   845  058C                     	;# 
   846  058C                     	;# 
   847  058D                     	;# 
   848  058E                     	;# 
   849  058F                     	;# 
   850  058F                     	;# 
   851  0590                     	;# 
   852  0591                     	;# 
   853  0592                     	;# 
   854  0593                     	;# 
   855  060C                     	;# 
   856  060D                     	;# 
   857  060E                     	;# 
   858  060F                     	;# 
   859  0610                     	;# 
   860  0611                     	;# 
   861  0612                     	;# 
   862  0613                     	;# 
   863  0614                     	;# 
   864  0616                     	;# 
   865  0617                     	;# 
   866  0618                     	;# 
   867  0619                     	;# 
   868  061A                     	;# 
   869  061B                     	;# 
   870  061C                     	;# 
   871  061D                     	;# 
   872  061E                     	;# 
   873  068C                     	;# 
   874  068D                     	;# 
   875  068E                     	;# 
   876  068F                     	;# 
   877  0690                     	;# 
   878  0691                     	;# 
   879  0692                     	;# 
   880  0693                     	;# 
   881  0694                     	;# 
   882  070C                     	;# 
   883  070D                     	;# 
   884  070E                     	;# 
   885  070F                     	;# 
   886  0710                     	;# 
   887  0711                     	;# 
   888  0712                     	;# 
   889  0713                     	;# 
   890  0714                     	;# 
   891  0716                     	;# 
   892  0717                     	;# 
   893  0718                     	;# 
   894  0719                     	;# 
   895  071A                     	;# 
   896  071B                     	;# 
   897  071C                     	;# 
   898  071D                     	;# 
   899  071E                     	;# 
   900  0796                     	;# 
   901  0797                     	;# 
   902  0798                     	;# 
   903  0799                     	;# 
   904  079A                     	;# 
   905  079B                     	;# 
   906  080C                     	;# 
   907  080D                     	;# 
   908  080E                     	;# 
   909  080F                     	;# 
   910  0810                     	;# 
   911  0811                     	;# 
   912  0812                     	;# 
   913  0813                     	;# 
   914  0814                     	;# 
   915  081A                     	;# 
   916  081B                     	;# 
   917  081C                     	;# 
   918  081D                     	;# 
   919  081E                     	;# 
   920  081F                     	;# 
   921  088C                     	;# 
   922  088D                     	;# 
   923  088E                     	;# 
   924  088F                     	;# 
   925  0890                     	;# 
   926  0891                     	;# 
   927  0892                     	;# 
   928  0893                     	;# 
   929  0895                     	;# 
   930  0896                     	;# 
   931  0897                     	;# 
   932  0898                     	;# 
   933  0899                     	;# 
   934  089A                     	;# 
   935  089B                     	;# 
   936  090C                     	;# 
   937  090E                     	;# 
   938  090F                     	;# 
   939  091F                     	;# 
   940  098F                     	;# 
   941  098F                     	;# 
   942  0990                     	;# 
   943  0991                     	;# 
   944  0992                     	;# 
   945  0993                     	;# 
   946  0994                     	;# 
   947  0995                     	;# 
   948  0996                     	;# 
   949  0997                     	;# 
   950  1E0F                     	;# 
   951  1E10                     	;# 
   952  1E11                     	;# 
   953  1E12                     	;# 
   954  1E13                     	;# 
   955  1E14                     	;# 
   956  1E15                     	;# 
   957  1E16                     	;# 
   958  1E17                     	;# 
   959  1E18                     	;# 
   960  1E19                     	;# 
   961  1E1A                     	;# 
   962  1E1B                     	;# 
   963  1E1C                     	;# 
   964  1E1D                     	;# 
   965  1E1E                     	;# 
   966  1E1F                     	;# 
   967  1E20                     	;# 
   968  1E21                     	;# 
   969  1E22                     	;# 
   970  1E23                     	;# 
   971  1E24                     	;# 
   972  1E25                     	;# 
   973  1E26                     	;# 
   974  1E27                     	;# 
   975  1E28                     	;# 
   976  1E29                     	;# 
   977  1E2A                     	;# 
   978  1E2B                     	;# 
   979  1E2C                     	;# 
   980  1E2D                     	;# 
   981  1E2E                     	;# 
   982  1E2F                     	;# 
   983  1E30                     	;# 
   984  1E31                     	;# 
   985  1E32                     	;# 
   986  1E33                     	;# 
   987  1E34                     	;# 
   988  1E35                     	;# 
   989  1E36                     	;# 
   990  1E37                     	;# 
   991  1E8F                     	;# 
   992  1E90                     	;# 
   993  1E91                     	;# 
   994  1E92                     	;# 
   995  1E93                     	;# 
   996  1E94                     	;# 
   997  1E95                     	;# 
   998  1E96                     	;# 
   999  1E97                     	;# 
  1000  1E9C                     	;# 
  1001  1E9D                     	;# 
  1002  1E9E                     	;# 
  1003  1EA1                     	;# 
  1004  1EA2                     	;# 
  1005  1EA3                     	;# 
  1006  1EA4                     	;# 
  1007  1EA5                     	;# 
  1008  1EA9                     	;# 
  1009  1EAA                     	;# 
  1010  1EAB                     	;# 
  1011  1EAC                     	;# 
  1012  1EB1                     	;# 
  1013  1EB2                     	;# 
  1014  1EB3                     	;# 
  1015  1EB8                     	;# 
  1016  1EB9                     	;# 
  1017  1EBA                     	;# 
  1018  1EBB                     	;# 
  1019  1EBC                     	;# 
  1020  1EBD                     	;# 
  1021  1EBE                     	;# 
  1022  1EC3                     	;# 
  1023  1EC5                     	;# 
  1024  1EC6                     	;# 
  1025  1EC7                     	;# 
  1026  1EC8                     	;# 
  1027  1EC9                     	;# 
  1028  1ECA                     	;# 
  1029  1ECB                     	;# 
  1030  1ECC                     	;# 
  1031  1F10                     	;# 
  1032  1F11                     	;# 
  1033  1F12                     	;# 
  1034  1F13                     	;# 
  1035  1F14                     	;# 
  1036  1F15                     	;# 
  1037  1F16                     	;# 
  1038  1F17                     	;# 
  1039  1F18                     	;# 
  1040  1F19                     	;# 
  1041  1F1A                     	;# 
  1042  1F1B                     	;# 
  1043  1F1C                     	;# 
  1044  1F1D                     	;# 
  1045  1F1E                     	;# 
  1046  1F1F                     	;# 
  1047  1F20                     	;# 
  1048  1F21                     	;# 
  1049  1F22                     	;# 
  1050  1F23                     	;# 
  1051  1F24                     	;# 
  1052  1F25                     	;# 
  1053  1F26                     	;# 
  1054  1F27                     	;# 
  1055  1F38                     	;# 
  1056  1F39                     	;# 
  1057  1F3A                     	;# 
  1058  1F3B                     	;# 
  1059  1F3C                     	;# 
  1060  1F3D                     	;# 
  1061  1F3E                     	;# 
  1062  1F3F                     	;# 
  1063  1F40                     	;# 
  1064  1F41                     	;# 
  1065  1F43                     	;# 
  1066  1F44                     	;# 
  1067  1F45                     	;# 
  1068  1F46                     	;# 
  1069  1F47                     	;# 
  1070  1F48                     	;# 
  1071  1F49                     	;# 
  1072  1F4A                     	;# 
  1073  1F4B                     	;# 
  1074  1F4C                     	;# 
  1075  1F4E                     	;# 
  1076  1F4F                     	;# 
  1077  1F50                     	;# 
  1078  1F51                     	;# 
  1079  1F52                     	;# 
  1080  1F53                     	;# 
  1081  1F54                     	;# 
  1082  1F55                     	;# 
  1083  1F56                     	;# 
  1084  1F57                     	;# 
  1085  1F65                     	;# 
  1086  1F68                     	;# 
  1087  1F69                     	;# 
  1088  1F6A                     	;# 
  1089  1F6B                     	;# 
  1090  1FE4                     	;# 
  1091  1FE5                     	;# 
  1092  1FE6                     	;# 
  1093  1FE7                     	;# 
  1094  1FE8                     	;# 
  1095  1FE9                     	;# 
  1096  1FEA                     	;# 
  1097  1FEB                     	;# 
  1098  1FED                     	;# 
  1099  1FEE                     	;# 
  1100  1FEF                     	;# 
  1101  0000                     	;# 
  1102  0001                     	;# 
  1103  0002                     	;# 
  1104  0003                     	;# 
  1105  0004                     	;# 
  1106  0005                     	;# 
  1107  0006                     	;# 
  1108  0007                     	;# 
  1109  0008                     	;# 
  1110  0009                     	;# 
  1111  000A                     	;# 
  1112  000B                     	;# 
  1113  000C                     	;# 
  1114  000D                     	;# 
  1115  000E                     	;# 
  1116  0010                     	;# 
  1117  0011                     	;# 
  1118  0012                     	;# 
  1119  0013                     	;# 
  1120  0016                     	;# 
  1121  0017                     	;# 
  1122  0018                     	;# 
  1123  001C                     	;# 
  1124  001C                     	;# 
  1125  001D                     	;# 
  1126  001D                     	;# 
  1127  001E                     	;# 
  1128  001F                     	;# 
  1129  008C                     	;# 
  1130  008C                     	;# 
  1131  008D                     	;# 
  1132  008E                     	;# 
  1133  008E                     	;# 
  1134  008F                     	;# 
  1135  0090                     	;# 
  1136  0090                     	;# 
  1137  0091                     	;# 
  1138  0093                     	;# 
  1139  0094                     	;# 
  1140  0095                     	;# 
  1141  0096                     	;# 
  1142  0097                     	;# 
  1143  0098                     	;# 
  1144  0099                     	;# 
  1145  009A                     	;# 
  1146  009B                     	;# 
  1147  009C                     	;# 
  1148  009D                     	;# 
  1149  009E                     	;# 
  1150  010C                     	;# 
  1151  010D                     	;# 
  1152  010E                     	;# 
  1153  010E                     	;# 
  1154  010F                     	;# 
  1155  0110                     	;# 
  1156  0110                     	;# 
  1157  0111                     	;# 
  1158  0112                     	;# 
  1159  0112                     	;# 
  1160  0113                     	;# 
  1161  0114                     	;# 
  1162  0114                     	;# 
  1163  0115                     	;# 
  1164  0116                     	;# 
  1165  0116                     	;# 
  1166  0117                     	;# 
  1167  0119                     	;# 
  1168  0119                     	;# 
  1169  0119                     	;# 
  1170  011A                     	;# 
  1171  011A                     	;# 
  1172  011A                     	;# 
  1173  011B                     	;# 
  1174  011B                     	;# 
  1175  011B                     	;# 
  1176  011B                     	;# 
  1177  011B                     	;# 
  1178  011C                     	;# 
  1179  011C                     	;# 
  1180  011C                     	;# 
  1181  011D                     	;# 
  1182  011D                     	;# 
  1183  011D                     	;# 
  1184  011E                     	;# 
  1185  011E                     	;# 
  1186  011E                     	;# 
  1187  011F                     	;# 
  1188  011F                     	;# 
  1189  011F                     	;# 
  1190  011F                     	;# 
  1191  011F                     	;# 
  1192  018C                     	;# 
  1193  018D                     	;# 
  1194  018E                     	;# 
  1195  018F                     	;# 
  1196  0190                     	;# 
  1197  0191                     	;# 
  1198  0192                     	;# 
  1199  0196                     	;# 
  1200  0197                     	;# 
  1201  0198                     	;# 
  1202  0199                     	;# 
  1203  019A                     	;# 
  1204  019B                     	;# 
  1205  019C                     	;# 
  1206  020C                     	;# 
  1207  020C                     	;# 
  1208  020D                     	;# 
  1209  020E                     	;# 
  1210  020F                     	;# 
  1211  020F                     	;# 
  1212  0210                     	;# 
  1213  0210                     	;# 
  1214  0211                     	;# 
  1215  0211                     	;# 
  1216  0212                     	;# 
  1217  0212                     	;# 
  1218  0213                     	;# 
  1219  0214                     	;# 
  1220  0215                     	;# 
  1221  0215                     	;# 
  1222  0216                     	;# 
  1223  0216                     	;# 
  1224  0217                     	;# 
  1225  0217                     	;# 
  1226  0218                     	;# 
  1227  0218                     	;# 
  1228  0219                     	;# 
  1229  021A                     	;# 
  1230  021B                     	;# 
  1231  021B                     	;# 
  1232  021C                     	;# 
  1233  021C                     	;# 
  1234  021D                     	;# 
  1235  021D                     	;# 
  1236  021E                     	;# 
  1237  021F                     	;# 
  1238  028C                     	;# 
  1239  028C                     	;# 
  1240  028D                     	;# 
  1241  028D                     	;# 
  1242  028E                     	;# 
  1243  028F                     	;# 
  1244  0290                     	;# 
  1245  0290                     	;# 
  1246  0291                     	;# 
  1247  0292                     	;# 
  1248  0292                     	;# 
  1249  0293                     	;# 
  1250  0293                     	;# 
  1251  0294                     	;# 
  1252  0295                     	;# 
  1253  0296                     	;# 
  1254  0296                     	;# 
  1255  0297                     	;# 
  1256  0298                     	;# 
  1257  0298                     	;# 
  1258  0299                     	;# 
  1259  0299                     	;# 
  1260  029A                     	;# 
  1261  029B                     	;# 
  1262  029C                     	;# 
  1263  029C                     	;# 
  1264  029D                     	;# 
  1265  030C                     	;# 
  1266  030C                     	;# 
  1267  030D                     	;# 
  1268  030E                     	;# 
  1269  030F                     	;# 
  1270  0310                     	;# 
  1271  0310                     	;# 
  1272  0311                     	;# 
  1273  0312                     	;# 
  1274  0313                     	;# 
  1275  0314                     	;# 
  1276  0314                     	;# 
  1277  0315                     	;# 
  1278  0316                     	;# 
  1279  0317                     	;# 
  1280  0318                     	;# 
  1281  0318                     	;# 
  1282  0319                     	;# 
  1283  031A                     	;# 
  1284  031B                     	;# 
  1285  031C                     	;# 
  1286  031C                     	;# 
  1287  031D                     	;# 
  1288  031E                     	;# 
  1289  031F                     	;# 
  1290  038C                     	;# 
  1291  038C                     	;# 
  1292  038D                     	;# 
  1293  038E                     	;# 
  1294  0390                     	;# 
  1295  0390                     	;# 
  1296  0391                     	;# 
  1297  0392                     	;# 
  1298  040C                     	;# 
  1299  040D                     	;# 
  1300  040E                     	;# 
  1301  040F                     	;# 
  1302  0410                     	;# 
  1303  0411                     	;# 
  1304  0416                     	;# 
  1305  0416                     	;# 
  1306  0417                     	;# 
  1307  0418                     	;# 
  1308  0418                     	;# 
  1309  0419                     	;# 
  1310  041A                     	;# 
  1311  041A                     	;# 
  1312  041B                     	;# 
  1313  041C                     	;# 
  1314  041C                     	;# 
  1315  041D                     	;# 
  1316  041E                     	;# 
  1317  041F                     	;# 
  1318  048C                     	;# 
  1319  048C                     	;# 
  1320  048D                     	;# 
  1321  048E                     	;# 
  1322  048F                     	;# 
  1323  048F                     	;# 
  1324  0490                     	;# 
  1325  0491                     	;# 
  1326  0492                     	;# 
  1327  0492                     	;# 
  1328  0493                     	;# 
  1329  0494                     	;# 
  1330  0495                     	;# 
  1331  0495                     	;# 
  1332  0496                     	;# 
  1333  0497                     	;# 
  1334  0498                     	;# 
  1335  0499                     	;# 
  1336  049A                     	;# 
  1337  049B                     	;# 
  1338  049C                     	;# 
  1339  049D                     	;# 
  1340  050C                     	;# 
  1341  050C                     	;# 
  1342  050D                     	;# 
  1343  050E                     	;# 
  1344  050F                     	;# 
  1345  050F                     	;# 
  1346  0510                     	;# 
  1347  0511                     	;# 
  1348  0512                     	;# 
  1349  0512                     	;# 
  1350  0513                     	;# 
  1351  0514                     	;# 
  1352  0515                     	;# 
  1353  0515                     	;# 
  1354  0516                     	;# 
  1355  0517                     	;# 
  1356  0518                     	;# 
  1357  0519                     	;# 
  1358  051A                     	;# 
  1359  051B                     	;# 
  1360  051C                     	;# 
  1361  051D                     	;# 
  1362  058C                     	;# 
  1363  058C                     	;# 
  1364  058D                     	;# 
  1365  058E                     	;# 
  1366  058F                     	;# 
  1367  058F                     	;# 
  1368  0590                     	;# 
  1369  0591                     	;# 
  1370  0592                     	;# 
  1371  0593                     	;# 
  1372  060C                     	;# 
  1373  060D                     	;# 
  1374  060E                     	;# 
  1375  060F                     	;# 
  1376  0610                     	;# 
  1377  0611                     	;# 
  1378  0612                     	;# 
  1379  0613                     	;# 
  1380  0614                     	;# 
  1381  0616                     	;# 
  1382  0617                     	;# 
  1383  0618                     	;# 
  1384  0619                     	;# 
  1385  061A                     	;# 
  1386  061B                     	;# 
  1387  061C                     	;# 
  1388  061D                     	;# 
  1389  061E                     	;# 
  1390  068C                     	;# 
  1391  068D                     	;# 
  1392  068E                     	;# 
  1393  068F                     	;# 
  1394  0690                     	;# 
  1395  0691                     	;# 
  1396  0692                     	;# 
  1397  0693                     	;# 
  1398  0694                     	;# 
  1399  070C                     	;# 
  1400  070D                     	;# 
  1401  070E                     	;# 
  1402  070F                     	;# 
  1403  0710                     	;# 
  1404  0711                     	;# 
  1405  0712                     	;# 
  1406  0713                     	;# 
  1407  0714                     	;# 
  1408  0716                     	;# 
  1409  0717                     	;# 
  1410  0718                     	;# 
  1411  0719                     	;# 
  1412  071A                     	;# 
  1413  071B                     	;# 
  1414  071C                     	;# 
  1415  071D                     	;# 
  1416  071E                     	;# 
  1417  0796                     	;# 
  1418  0797                     	;# 
  1419  0798                     	;# 
  1420  0799                     	;# 
  1421  079A                     	;# 
  1422  079B                     	;# 
  1423  080C                     	;# 
  1424  080D                     	;# 
  1425  080E                     	;# 
  1426  080F                     	;# 
  1427  0810                     	;# 
  1428  0811                     	;# 
  1429  0812                     	;# 
  1430  0813                     	;# 
  1431  0814                     	;# 
  1432  081A                     	;# 
  1433  081B                     	;# 
  1434  081C                     	;# 
  1435  081D                     	;# 
  1436  081E                     	;# 
  1437  081F                     	;# 
  1438  088C                     	;# 
  1439  088D                     	;# 
  1440  088E                     	;# 
  1441  088F                     	;# 
  1442  0890                     	;# 
  1443  0891                     	;# 
  1444  0892                     	;# 
  1445  0893                     	;# 
  1446  0895                     	;# 
  1447  0896                     	;# 
  1448  0897                     	;# 
  1449  0898                     	;# 
  1450  0899                     	;# 
  1451  089A                     	;# 
  1452  089B                     	;# 
  1453  090C                     	;# 
  1454  090E                     	;# 
  1455  090F                     	;# 
  1456  091F                     	;# 
  1457  098F                     	;# 
  1458  098F                     	;# 
  1459  0990                     	;# 
  1460  0991                     	;# 
  1461  0992                     	;# 
  1462  0993                     	;# 
  1463  0994                     	;# 
  1464  0995                     	;# 
  1465  0996                     	;# 
  1466  0997                     	;# 
  1467  1E0F                     	;# 
  1468  1E10                     	;# 
  1469  1E11                     	;# 
  1470  1E12                     	;# 
  1471  1E13                     	;# 
  1472  1E14                     	;# 
  1473  1E15                     	;# 
  1474  1E16                     	;# 
  1475  1E17                     	;# 
  1476  1E18                     	;# 
  1477  1E19                     	;# 
  1478  1E1A                     	;# 
  1479  1E1B                     	;# 
  1480  1E1C                     	;# 
  1481  1E1D                     	;# 
  1482  1E1E                     	;# 
  1483  1E1F                     	;# 
  1484  1E20                     	;# 
  1485  1E21                     	;# 
  1486  1E22                     	;# 
  1487  1E23                     	;# 
  1488  1E24                     	;# 
  1489  1E25                     	;# 
  1490  1E26                     	;# 
  1491  1E27                     	;# 
  1492  1E28                     	;# 
  1493  1E29                     	;# 
  1494  1E2A                     	;# 
  1495  1E2B                     	;# 
  1496  1E2C                     	;# 
  1497  1E2D                     	;# 
  1498  1E2E                     	;# 
  1499  1E2F                     	;# 
  1500  1E30                     	;# 
  1501  1E31                     	;# 
  1502  1E32                     	;# 
  1503  1E33                     	;# 
  1504  1E34                     	;# 
  1505  1E35                     	;# 
  1506  1E36                     	;# 
  1507  1E37                     	;# 
  1508  1E8F                     	;# 
  1509  1E90                     	;# 
  1510  1E91                     	;# 
  1511  1E92                     	;# 
  1512  1E93                     	;# 
  1513  1E94                     	;# 
  1514  1E95                     	;# 
  1515  1E96                     	;# 
  1516  1E97                     	;# 
  1517  1E9C                     	;# 
  1518  1E9D                     	;# 
  1519  1E9E                     	;# 
  1520  1EA1                     	;# 
  1521  1EA2                     	;# 
  1522  1EA3                     	;# 
  1523  1EA4                     	;# 
  1524  1EA5                     	;# 
  1525  1EA9                     	;# 
  1526  1EAA                     	;# 
  1527  1EAB                     	;# 
  1528  1EAC                     	;# 
  1529  1EB1                     	;# 
  1530  1EB2                     	;# 
  1531  1EB3                     	;# 
  1532  1EB8                     	;# 
  1533  1EB9                     	;# 
  1534  1EBA                     	;# 
  1535  1EBB                     	;# 
  1536  1EBC                     	;# 
  1537  1EBD                     	;# 
  1538  1EBE                     	;# 
  1539  1EC3                     	;# 
  1540  1EC5                     	;# 
  1541  1EC6                     	;# 
  1542  1EC7                     	;# 
  1543  1EC8                     	;# 
  1544  1EC9                     	;# 
  1545  1ECA                     	;# 
  1546  1ECB                     	;# 
  1547  1ECC                     	;# 
  1548  1F10                     	;# 
  1549  1F11                     	;# 
  1550  1F12                     	;# 
  1551  1F13                     	;# 
  1552  1F14                     	;# 
  1553  1F15                     	;# 
  1554  1F16                     	;# 
  1555  1F17                     	;# 
  1556  1F18                     	;# 
  1557  1F19                     	;# 
  1558  1F1A                     	;# 
  1559  1F1B                     	;# 
  1560  1F1C                     	;# 
  1561  1F1D                     	;# 
  1562  1F1E                     	;# 
  1563  1F1F                     	;# 
  1564  1F20                     	;# 
  1565  1F21                     	;# 
  1566  1F22                     	;# 
  1567  1F23                     	;# 
  1568  1F24                     	;# 
  1569  1F25                     	;# 
  1570  1F26                     	;# 
  1571  1F27                     	;# 
  1572  1F38                     	;# 
  1573  1F39                     	;# 
  1574  1F3A                     	;# 
  1575  1F3B                     	;# 
  1576  1F3C                     	;# 
  1577  1F3D                     	;# 
  1578  1F3E                     	;# 
  1579  1F3F                     	;# 
  1580  1F40                     	;# 
  1581  1F41                     	;# 
  1582  1F43                     	;# 
  1583  1F44                     	;# 
  1584  1F45                     	;# 
  1585  1F46                     	;# 
  1586  1F47                     	;# 
  1587  1F48                     	;# 
  1588  1F49                     	;# 
  1589  1F4A                     	;# 
  1590  1F4B                     	;# 
  1591  1F4C                     	;# 
  1592  1F4E                     	;# 
  1593  1F4F                     	;# 
  1594  1F50                     	;# 
  1595  1F51                     	;# 
  1596  1F52                     	;# 
  1597  1F53                     	;# 
  1598  1F54                     	;# 
  1599  1F55                     	;# 
  1600  1F56                     	;# 
  1601  1F57                     	;# 
  1602  1F65                     	;# 
  1603  1F68                     	;# 
  1604  1F69                     	;# 
  1605  1F6A                     	;# 
  1606  1F6B                     	;# 
  1607  1FE4                     	;# 
  1608  1FE5                     	;# 
  1609  1FE6                     	;# 
  1610  1FE7                     	;# 
  1611  1FE8                     	;# 
  1612  1FE9                     	;# 
  1613  1FEA                     	;# 
  1614  1FEB                     	;# 
  1615  1FED                     	;# 
  1616  1FEE                     	;# 
  1617  1FEF                     	;# 
  1618  0013                     _TRISC	set	19
  1619  0012                     _TRISB	set	18
  1620  0011                     _TRISA	set	17
  1621  005F                     _GIE	set	95
  1622  005E                     _PEIE	set	94
  1623  009A                     _ADREFbits	set	154
  1624  009E                     _ADPCH	set	158
  1625  0098                     _ADCLKbits	set	152
  1626  0093                     _ADCON0	set	147
  1627  011B                     _SP1BRG	set	283
  1628  011F                     _BAUD1CON	set	287
  1629  011D                     _RC1STA	set	285
  1630  011E                     _TX1STAbits	set	286
  1631  011E                     _TX1STA	set	286
  1632  0119                     _RCREG	set	281
  1633  011A                     _TX1REG	set	282
  1634  08F1                     _TRMT	set	2289
  1635  0197                     _SSP2ADD	set	407
  1636  019C                     _SSP2CON3	set	412
  1637  019A                     _SSP2CON1	set	410
  1638  0199                     _SSP2STAT	set	409
  1639  018F                     _SSP1STAT	set	399
  1640  0190                     _SSP1CON1	set	400
  1641  0199                     _SSP2STATbits	set	409
  1642  0196                     _SSP2BUF	set	406
  1643  019B                     _SSP2CON2bits	set	411
  1644  021E                     _CCPTMRS0bits	set	542
  1645  028D                     _PR2	set	653
  1646  028E                     _T2CONbits	set	654
  1647  0290                     _T2CLKCONbits	set	656
  1648  1477                     _TMR2ON	set	5239
  1649  0319                     _CCPR4H	set	793
  1650  0318                     _CCPR4L	set	792
  1651  031A                     _CCP4CONbits	set	794
  1652  0315                     _CCPR3H	set	789
  1653  0314                     _CCPR3L	set	788
  1654  0316                     _CCP3CONbits	set	790
  1655  0311                     _CCPR2H	set	785
  1656  0310                     _CCPR2L	set	784
  1657  0312                     _CCP2CONbits	set	786
  1658  030C                     _CCPR1L	set	780
  1659  030E                     _CCP1CONbits	set	782
  1660  030D                     _CCPR1H	set	781
  1661  38CD                     _RCIE	set	14541
  1662  387D                     _RCIF	set	14461
  1663  0893                     _OSCFRQbits	set	2195
  1664  088D                     _OSCCON1bits	set	2189
  1665  1ECB                     _RXPPS	set	7883
  1666  1EC8                     _SSP2CLKPPS	set	7880
  1667  1EC9                     _SSP2DATPPS	set	7881
  1668  1EC6                     _SSP1DATPPS	set	7878
  1669  1EC5                     _SSP1CLKPPS	set	7877
  1670  1E8F                     _PPSLOCKbits	set	7823
  1671  1E8F                     _PPSLOCK	set	7823
  1672  1F1A                     _RB2PPS	set	7962
  1673  1F1B                     _RB3PPS	set	7963
  1674  1F1C                     _RB4PPS	set	7964
  1675  1F1D                     _RB5PPS	set	7965
  1676  1F21                     _RC1PPS	set	7969
  1677  1F19                     _RB1PPS	set	7961
  1678  1F18                     _RB0PPS	set	7960
  1679  1F25                     _RC5PPS	set	7973
  1680  1F26                     _RC6PPS	set	7974
  1681  1F4E                     _ANSELC	set	8014
  1682  1F43                     _ANSELB	set	8003
  1683  1F38                     _ANSELA	set	7992
  1684                           
  1685                           	psect	stringtext1
  1686  0258                     __pstringtext1:
  1687  0258                     STR_2:
  1688  0258  3453               	retlw	83	;'S'
  1689  0259  3452               	retlw	82	;'R'
  1690  025A  342C               	retlw	44	;','
  1691  025B  3433               	retlw	51	;'3'
  1692  025C  3432               	retlw	50	;'2'
  1693  025D  3430               	retlw	48	;'0'
  1694  025E  3430               	retlw	48	;'0'
  1695  025F  3430               	retlw	48	;'0'
  1696  0260  3430               	retlw	48	;'0'
  1697  0261  3430               	retlw	48	;'0'
  1698  0262  3430               	retlw	48	;'0'
  1699  0263  340A               	retlw	10
  1700  0264  3400               	retlw	0
  1701                           
  1702                           	psect	stringtext2
  1703  0285                     __pstringtext2:
  1704  0285                     STR_1:
  1705  0285  3453               	retlw	83	;'S'
  1706  0286  3446               	retlw	70	;'F'
  1707  0287  342C               	retlw	44	;','
  1708  0288  3431               	retlw	49	;'1'
  1709  0289  340A               	retlw	10
  1710  028A  3400               	retlw	0
  1711                           
  1712                           	psect	stringtext3
  1713  0291                     __pstringtext3:
  1714  0291                     STR_3:
  1715  0291  3452               	retlw	82	;'R'
  1716  0292  342C               	retlw	44	;','
  1717  0293  3431               	retlw	49	;'1'
  1718  0294  340A               	retlw	10
  1719  0295  3400               	retlw	0
  1720                           
  1721                           	psect	stringtext4
  1722  0296                     __pstringtext4:
  1723  0296                     STR_4:
  1724  0296  3441               	retlw	65	;'A'
  1725  0297  340A               	retlw	10
  1726  0298  3400               	retlw	0
  1727                           
  1728                           	psect	stringtext5
  1729  0000                     __pstringtext5:
  1730                           
  1731                           	psect	cinit
  1732  0016                     start_initialization:	
  1733                           ; #config settings
  1734                           
  1735  0016                     __initialization:
  1736                           
  1737                           ; Clear objects allocated to COMMON
  1738  0016  01FC               	clrf	__pbssCOMMON& (0+127)
  1739                           
  1740                           ; Clear objects allocated to BANK0
  1741  0017  3020               	movlw	low __pbssBANK0
  1742  0018  0084               	movwf	4
  1743  0019  3000               	movlw	high __pbssBANK0
  1744  001A  0085               	movwf	5
  1745  001B  3028               	movlw	40
  1746  001C  3182  228B  3180   	fcall	clear_ram0
  1747  001F                     end_of_initialization:	
  1748                           ;End of C runtime variable initialization code
  1749                           
  1750  001F                     __end_of__initialization:
  1751  001F  107E               	bcf	int$flags,0	;clear compiler interrupt flag (level 1)
  1752  0020  0140               	movlb	0
  1753  0021  3181  294B         	ljmp	_main	;jump to C main() function
  1754                           
  1755                           	psect	bssCOMMON
  1756  007C                     __pbssCOMMON:
  1757  007C                     _num:
  1758  007C                     	ds	1
  1759                           
  1760                           	psect	bssBANK0
  1761  0020                     __pbssBANK0:
  1762  0020                     _dbuf:
  1763  0020                     	ds	32
  1764  0040                     _nout:
  1765  0040                     	ds	2
  1766  0042                     _width:
  1767  0042                     	ds	2
  1768  0044                     _prec:
  1769  0044                     	ds	2
  1770  0046                     _flags:
  1771  0046                     	ds	2
  1772                           
  1773                           	psect	clrtext
  1774  028B                     clear_ram0:	
  1775                           ;	Called with FSR0 containing the base address, and
  1776                           ;	WREG with the size to clear
  1777                           
  1778  028B  0064               	clrwdt	;clear the watchdog before getting into this loop
  1779  028C                     clrloop0:
  1780  028C  0180               	clrf	0	;clear RAM location pointed to by FSR
  1781  028D  3101               	addfsr 0,1
  1782  028E  0B89               	decfsz	9,f	;Have we reached the end of clearing yet?
  1783  028F  2A8C               	goto	clrloop0	;have we reached the end yet?
  1784  0290  3400               	retlw	0	;all done for this memory range, return
  1785                           
  1786                           	psect	cstackCOMMON
  1787  0070                     __pcstackCOMMON:
  1788  0070                     ?_init:
  1789  0070                     ?_i2cProtocolStart:	
  1790                           ; 1 bytes @ 0x0
  1791                           
  1792  0070                     ?_i2cProtocolStop:	
  1793                           ; 1 bytes @ 0x0
  1794                           
  1795  0070                     ?_i2cProtocolSendData:	
  1796                           ; 1 bytes @ 0x0
  1797                           
  1798  0070                     ?_lcdSendCommandData:	
  1799                           ; 1 bytes @ 0x0
  1800                           
  1801  0070                     ?_lcdInitialize:	
  1802                           ; 1 bytes @ 0x0
  1803                           
  1804  0070                     ?_putch:	
  1805                           ; 1 bytes @ 0x0
  1806                           
  1807  0070                     ?_uart:	
  1808                           ; 1 bytes @ 0x0
  1809                           
  1810  0070                     ??_uart:	
  1811                           ; 1 bytes @ 0x0
  1812                           
  1813  0070                     ?_main:	
  1814                           ; 1 bytes @ 0x0
  1815                           
  1816                           
  1817                           ; 1 bytes @ 0x0
  1818  0070                     	ds	1
  1819  0071                     ??_init:
  1820  0071                     ??_i2cProtocolStart:	
  1821                           ; 1 bytes @ 0x1
  1822                           
  1823  0071                     ??_i2cProtocolStop:	
  1824                           ; 1 bytes @ 0x1
  1825                           
  1826  0071                     ??_i2cProtocolSendData:	
  1827                           ; 1 bytes @ 0x1
  1828                           
  1829  0071                     ??_putch:	
  1830                           ; 1 bytes @ 0x1
  1831                           
  1832  0071                     i2cProtocolSendData@data:	
  1833                           ; 1 bytes @ 0x1
  1834                           
  1835  0071                     putch@data:	
  1836                           ; 1 bytes @ 0x1
  1837                           
  1838                           
  1839                           ; 1 bytes @ 0x1
  1840  0071                     	ds	1
  1841  0072                     ?_lcdI2CProtocol:
  1842  0072                     ?_fputc:	
  1843                           ; 1 bytes @ 0x2
  1844                           
  1845  0072                     lcdI2CProtocol@cont_code:	
  1846                           ; 2 bytes @ 0x2
  1847                           
  1848  0072                     fputc@c:	
  1849                           ; 1 bytes @ 0x2
  1850                           
  1851                           
  1852                           ; 2 bytes @ 0x2
  1853  0072                     	ds	1
  1854  0073                     lcdI2CProtocol@data:
  1855                           
  1856                           ; 1 bytes @ 0x3
  1857  0073                     	ds	1
  1858  0074                     ??_lcdI2CProtocol:
  1859  0074                     lcdI2CProtocol@address:	
  1860                           ; 1 bytes @ 0x4
  1861                           
  1862  0074                     fputc@fp:	
  1863                           ; 1 bytes @ 0x4
  1864                           
  1865                           
  1866                           ; 1 bytes @ 0x4
  1867  0074                     	ds	1
  1868  0075                     ??_fputc:
  1869  0075                     ??_lcdSendCommandData:	
  1870                           ; 1 bytes @ 0x5
  1871                           
  1872                           
  1873                           ; 1 bytes @ 0x5
  1874  0075                     	ds	1
  1875  0076                     lcdSendCommandData@command:
  1876                           
  1877                           ; 1 bytes @ 0x6
  1878  0076                     	ds	1
  1879  0077                     ??_lcdInitialize:
  1880                           
  1881                           ; 1 bytes @ 0x7
  1882  0077                     	ds	3
  1883  007A                     ?_vfpfcnvrt:
  1884  007A                     vfpfcnvrt@fmt:	
  1885                           ; 2 bytes @ 0xA
  1886                           
  1887                           
  1888                           ; 1 bytes @ 0xA
  1889  007A                     	ds	1
  1890  007B                     vfpfcnvrt@ap:
  1891                           
  1892                           ; 1 bytes @ 0xB
  1893  007B                     	ds	1
  1894                           
  1895                           	psect	cstackBANK0
  1896  0048                     __pcstackBANK0:
  1897  0048                     ??_vfpfcnvrt:
  1898                           
  1899                           ; 1 bytes @ 0x0
  1900  0048                     	ds	5
  1901  004D                     vfpfcnvrt@fp:
  1902                           
  1903                           ; 1 bytes @ 0x5
  1904  004D                     	ds	1
  1905  004E                     ?_vfprintf:
  1906  004E                     vfprintf@fmt:	
  1907                           ; 2 bytes @ 0x6
  1908                           
  1909                           
  1910                           ; 2 bytes @ 0x6
  1911  004E                     	ds	2
  1912  0050                     vfprintf@ap:
  1913                           
  1914                           ; 1 bytes @ 0x8
  1915  0050                     	ds	1
  1916  0051                     ??_vfprintf:
  1917                           
  1918                           ; 1 bytes @ 0x9
  1919  0051                     	ds	2
  1920  0053                     vfprintf@fp:
  1921                           
  1922                           ; 1 bytes @ 0xB
  1923  0053                     	ds	1
  1924  0054                     vfprintf@cfmt:
  1925                           
  1926                           ; 2 bytes @ 0xC
  1927  0054                     	ds	2
  1928  0056                     ?_printf:
  1929  0056                     printf@fmt:	
  1930                           ; 2 bytes @ 0xE
  1931                           
  1932                           
  1933                           ; 2 bytes @ 0xE
  1934  0056                     	ds	2
  1935  0058                     ??_printf:
  1936                           
  1937                           ; 1 bytes @ 0x10
  1938  0058                     	ds	3
  1939  005B                     printf@ap:
  1940                           
  1941                           ; 1 bytes @ 0x13
  1942  005B                     	ds	1
  1943  005C                     ??_main:
  1944                           
  1945                           ; 1 bytes @ 0x14
  1946  005C                     	ds	2
  1947                           
  1948                           	psect	maintext
  1949  014B                     __pmaintext:	
  1950 ;;
  1951 ;;Main: autosize = 0, tempsize = 2, incstack = 0, save=0
  1952 ;;
  1953 ;; *************** function _main *****************
  1954 ;; Defined at:
  1955 ;;		line 77 in file "main.c"
  1956 ;; Parameters:    Size  Location     Type
  1957 ;;		None
  1958 ;; Auto vars:     Size  Location     Type
  1959 ;;		None
  1960 ;; Return value:  Size  Location     Type
  1961 ;;                  1    wreg      void 
  1962 ;; Registers used:
  1963 ;;		wreg, fsr0l, fsr0h, fsr1l, fsr1h, status,2, status,0, pclath, cstack
  1964 ;; Tracked objects:
  1965 ;;		On entry : B3F/0
  1966 ;;		On exit  : 0/0
  1967 ;;		Unchanged: 0/0
  1968 ;; Data sizes:     COMMON   BANK0   BANK1   BANK2   BANK3   BANK4   BANK5   BANK6   BANK7   BANK8   BANK9  BANK10  BANK1
      +1  BANK12  BANK13  BANK14  BANK15  BANK16  BANK17  BANK18  BANK19  BANK20  BANK21  BANK22  BANK23  BANK24  BANK25  BANK2
      +6  BANK27  BANK28  BANK29  BANK30  BANK31  BANK32  BANK33  BANK34  BANK35  BANK36  BANK37  BANK38  BANK39  BANK40  BANK4
      +1  BANK42  BANK43  BANK44  BANK45  BANK46  BANK47  BANK48  BANK49  BANK50
  1969 ;;      Params:         0       0       0       0       0       0       0       0       0       0       0       0       
      +0       0       0       0       0       0       0       0       0       0       0       0       0       0       0       
      +0       0       0       0       0       0       0       0       0       0       0       0       0       0       0       
      +0       0       0       0       0       0       0       0       0       0
  1970 ;;      Locals:         0       0       0       0       0       0       0       0       0       0       0       0       
      +0       0       0       0       0       0       0       0       0       0       0       0       0       0       0       
      +0       0       0       0       0       0       0       0       0       0       0       0       0       0       0       
      +0       0       0       0       0       0       0       0       0       0
  1971 ;;      Temps:          0       2       0       0       0       0       0       0       0       0       0       0       
      +0       0       0       0       0       0       0       0       0       0       0       0       0       0       0       
      +0       0       0       0       0       0       0       0       0       0       0       0       0       0       0       
      +0       0       0       0       0       0       0       0       0       0
  1972 ;;      Totals:         0       2       0       0       0       0       0       0       0       0       0       0       
      +0       0       0       0       0       0       0       0       0       0       0       0       0       0       0       
      +0       0       0       0       0       0       0       0       0       0       0       0       0       0       0       
      +0       0       0       0       0       0       0       0       0       0
  1973 ;;Total ram usage:        2 bytes
  1974 ;; Hardware stack levels required when called:    6
  1975 ;; This function calls:
  1976 ;;		_init
  1977 ;;		_lcdInitialize
  1978 ;;		_printf
  1979 ;; This function is called by:
  1980 ;;		Startup code after reset
  1981 ;; This function uses a non-reentrant model
  1982 ;;
  1983                           
  1984                           
  1985                           ;psect for function _main
  1986  014B                     _main:
  1987  014B                     l1384:	
  1988                           ;incstack = 0
  1989                           ; Regs used in _main: [wreg-fsr1h+status,2+status,0+pclath+cstack]
  1990                           
  1991                           
  1992                           ;main.c: 78:     init();
  1993  014B  3180  2023  3181   	fcall	_init
  1994                           
  1995                           ;main.c: 79:     lcdInitialize();
  1996  014E  3181  21CF  3181   	fcall	_lcdInitialize
  1997  0151                     l1386:
  1998                           
  1999                           ;main.c: 80:     _delay((unsigned long)((100)*(32000000/4000.0)));
  2000  0151  3005               	movlw	5
  2001  0152  0140               	movlb	0	; select bank0
  2002  0153  00DD               	movwf	??_main+1
  2003  0154  300F               	movlw	15
  2004  0155  00DC               	movwf	??_main
  2005  0156  30F1               	movlw	241
  2006  0157                     u327:
  2007  0157  0B89               	decfsz	9,f
  2008  0158  2957               	goto	u327
  2009  0159  0BDC               	decfsz	??_main,f
  2010  015A  2957               	goto	u327
  2011  015B  0BDD               	decfsz	??_main+1,f
  2012  015C  2957               	goto	u327
  2013  015D                     l1388:
  2014                           
  2015                           ;main.c: 86:     printf("SF,1\n");
  2016  015D  3085               	movlw	low (STR_1| (0+32768))
  2017  015E  0140               	movlb	0	; select bank0
  2018  015F  00D6               	movwf	printf@fmt
  2019  0160  3082               	movlw	high (STR_1| (0+32768))
  2020  0161  00D7               	movwf	printf@fmt+1
  2021  0162  3182  2237  3181   	fcall	_printf
  2022  0165                     l1390:
  2023                           
  2024                           ;main.c: 87:     printf("SR,32000000\n");
  2025  0165  3058               	movlw	low (STR_2| (0+32768))
  2026  0166  0140               	movlb	0	; select bank0
  2027  0167  00D6               	movwf	printf@fmt
  2028  0168  3082               	movlw	high (STR_2| (0+32768))
  2029  0169  00D7               	movwf	printf@fmt+1
  2030  016A  3182  2237  3181   	fcall	_printf
  2031  016D                     l1392:
  2032                           
  2033                           ;main.c: 88:     printf("R,1\n");
  2034  016D  3091               	movlw	low (STR_3| (0+32768))
  2035  016E  0140               	movlb	0	; select bank0
  2036  016F  00D6               	movwf	printf@fmt
  2037  0170  3082               	movlw	high (STR_3| (0+32768))
  2038  0171  00D7               	movwf	printf@fmt+1
  2039  0172  3182  2237  3181   	fcall	_printf
  2040  0175                     l1394:
  2041                           
  2042                           ;main.c: 89:     _delay((unsigned long)((3000)*(32000000/4000.0)));
  2043  0175  307A               	movlw	122
  2044  0176  0140               	movlb	0	; select bank0
  2045  0177  00DD               	movwf	??_main+1
  2046  0178  30C1               	movlw	193
  2047  0179  00DC               	movwf	??_main
  2048  017A  3081               	movlw	129
  2049  017B                     u337:
  2050  017B  0B89               	decfsz	9,f
  2051  017C  297B               	goto	u337
  2052  017D  0BDC               	decfsz	??_main,f
  2053  017E  297B               	goto	u337
  2054  017F  0BDD               	decfsz	??_main+1,f
  2055  0180  297B               	goto	u337
  2056  0181  3200               	nop2
  2057  0182                     l1396:
  2058                           
  2059                           ;main.c: 90:     printf("A\n");
  2060  0182  3096               	movlw	low (STR_4| (0+32768))
  2061  0183  0140               	movlb	0	; select bank0
  2062  0184  00D6               	movwf	printf@fmt
  2063  0185  3082               	movlw	high (STR_4| (0+32768))
  2064  0186  00D7               	movwf	printf@fmt+1
  2065  0187  3182  2237  3181   	fcall	_printf
  2066  018A                     l1398:
  2067                           
  2068                           ;main.c: 100:     {;main.c: 101:         CCPR1H = 90;
  2069  018A  305A               	movlw	90
  2070  018B  0146               	movlb	6	; select bank6
  2071  018C  008D               	movwf	13	;volatile
  2072  018D  298A               	goto	l1398
  2073  018E  3180  2814         	ljmp	start
  2074  0190                     __end_of_main:
  2075                           
  2076                           	psect	text1
  2077  0237                     __ptext1:	
  2078 ;; *************** function _printf *****************
  2079 ;; Defined at:
  2080 ;;		line 5 in file "C:\Program Files\Microchip\xc8\v2.31\pic\sources\c99\common\printf.c"
  2081 ;; Parameters:    Size  Location     Type
  2082 ;;  fmt             2   14[BANK0 ] PTR const unsigned char 
  2083 ;;		 -> STR_4(3), STR_3(5), STR_2(13), STR_1(6), 
  2084 ;; Auto vars:     Size  Location     Type
  2085 ;;  ret             2    0        int 
  2086 ;;  ap              1   19[BANK0 ] PTR void [1]
  2087 ;;		 -> ?_printf(2), 
  2088 ;; Return value:  Size  Location     Type
  2089 ;;                  2   14[BANK0 ] int 
  2090 ;; Registers used:
  2091 ;;		wreg, fsr0l, fsr0h, fsr1l, fsr1h, status,2, status,0, pclath, cstack
  2092 ;; Tracked objects:
  2093 ;;		On entry : 0/0
  2094 ;;		On exit  : 0/0
  2095 ;;		Unchanged: 0/0
  2096 ;; Data sizes:     COMMON   BANK0   BANK1   BANK2   BANK3   BANK4   BANK5   BANK6   BANK7   BANK8   BANK9  BANK10  BANK1
      +1  BANK12  BANK13  BANK14  BANK15  BANK16  BANK17  BANK18  BANK19  BANK20  BANK21  BANK22  BANK23  BANK24  BANK25  BANK2
      +6  BANK27  BANK28  BANK29  BANK30  BANK31  BANK32  BANK33  BANK34  BANK35  BANK36  BANK37  BANK38  BANK39  BANK40  BANK4
      +1  BANK42  BANK43  BANK44  BANK45  BANK46  BANK47  BANK48  BANK49  BANK50
  2097 ;;      Params:         0       2       0       0       0       0       0       0       0       0       0       0       
      +0       0       0       0       0       0       0       0       0       0       0       0       0       0       0       
      +0       0       0       0       0       0       0       0       0       0       0       0       0       0       0       
      +0       0       0       0       0       0       0       0       0       0
  2098 ;;      Locals:         0       3       0       0       0       0       0       0       0       0       0       0       
      +0       0       0       0       0       0       0       0       0       0       0       0       0       0       0       
      +0       0       0       0       0       0       0       0       0       0       0       0       0       0       0       
      +0       0       0       0       0       0       0       0       0       0
  2099 ;;      Temps:          0       1       0       0       0       0       0       0       0       0       0       0       
      +0       0       0       0       0       0       0       0       0       0       0       0       0       0       0       
      +0       0       0       0       0       0       0       0       0       0       0       0       0       0       0       
      +0       0       0       0       0       0       0       0       0       0
  2100 ;;      Totals:         0       6       0       0       0       0       0       0       0       0       0       0       
      +0       0       0       0       0       0       0       0       0       0       0       0       0       0       0       
      +0       0       0       0       0       0       0       0       0       0       0       0       0       0       0       
      +0       0       0       0       0       0       0       0       0       0
  2101 ;;Total ram usage:        6 bytes
  2102 ;; Hardware stack levels used:    1
  2103 ;; Hardware stack levels required when called:    5
  2104 ;; This function calls:
  2105 ;;		_vfprintf
  2106 ;; This function is called by:
  2107 ;;		_main
  2108 ;; This function uses a non-reentrant model
  2109 ;;
  2110                           
  2111                           
  2112                           ;psect for function _printf
  2113  0237                     _printf:
  2114  0237                     l1378:	
  2115                           ;incstack = 0
  2116                           ; Regs used in _printf: [wreg-fsr1h+status,2+status,0+pclath+cstack]
  2117                           
  2118  0237  3058               	movlw	(low ((?_printf| 0+2)))& (0+255)
  2119  0238  0140               	movlb	0	; select bank0
  2120  0239  00D8               	movwf	??_printf
  2121  023A  0858               	movf	??_printf,w
  2122  023B  00DB               	movwf	printf@ap
  2123  023C                     l1380:
  2124  023C  0857               	movf	printf@fmt+1,w
  2125  023D  00CF               	movwf	vfprintf@fmt+1
  2126  023E  0856               	movf	printf@fmt,w
  2127  023F  00CE               	movwf	vfprintf@fmt
  2128  0240  305B               	movlw	(low (printf@ap| 0))& (0+255)
  2129  0241  00D8               	movwf	??_printf
  2130  0242  0858               	movf	??_printf,w
  2131  0243  00D0               	movwf	vfprintf@ap
  2132  0244  3000               	movlw	0
  2133  0245  3181  21FB  3182   	fcall	_vfprintf
  2134  0248                     l823:
  2135  0248  0008               	return
  2136  0249                     __end_of_printf:
  2137                           
  2138                           	psect	text2
  2139  01FB                     __ptext2:	
  2140 ;; *************** function _vfprintf *****************
  2141 ;; Defined at:
  2142 ;;		line 1390 in file "C:\Program Files\Microchip\xc8\v2.31\pic\sources\c99\common\doprnt.c"
  2143 ;; Parameters:    Size  Location     Type
  2144 ;;  fp              1    wreg     PTR struct _IO_FILE
  2145 ;;		 -> NULL(0), 
  2146 ;;  fmt             2    6[BANK0 ] PTR const unsigned char 
  2147 ;;		 -> STR_4(3), STR_3(5), STR_2(13), STR_1(6), 
  2148 ;;  ap              1    8[BANK0 ] PTR PTR void 
  2149 ;;		 -> printf@ap(1), 
  2150 ;; Auto vars:     Size  Location     Type
  2151 ;;  fp              1   11[BANK0 ] PTR struct _IO_FILE
  2152 ;;		 -> NULL(0), 
  2153 ;;  cfmt            2   12[BANK0 ] PTR unsigned char 
  2154 ;;		 -> STR_4(3), STR_3(5), STR_2(13), STR_1(6), 
  2155 ;; Return value:  Size  Location     Type
  2156 ;;                  2    6[BANK0 ] int 
  2157 ;; Registers used:
  2158 ;;		wreg, fsr0l, fsr0h, fsr1l, fsr1h, status,2, status,0, pclath, cstack
  2159 ;; Tracked objects:
  2160 ;;		On entry : 0/0
  2161 ;;		On exit  : 0/0
  2162 ;;		Unchanged: 0/0
  2163 ;; Data sizes:     COMMON   BANK0   BANK1   BANK2   BANK3   BANK4   BANK5   BANK6   BANK7   BANK8   BANK9  BANK10  BANK1
      +1  BANK12  BANK13  BANK14  BANK15  BANK16  BANK17  BANK18  BANK19  BANK20  BANK21  BANK22  BANK23  BANK24  BANK25  BANK2
      +6  BANK27  BANK28  BANK29  BANK30  BANK31  BANK32  BANK33  BANK34  BANK35  BANK36  BANK37  BANK38  BANK39  BANK40  BANK4
      +1  BANK42  BANK43  BANK44  BANK45  BANK46  BANK47  BANK48  BANK49  BANK50
  2164 ;;      Params:         0       3       0       0       0       0       0       0       0       0       0       0       
      +0       0       0       0       0       0       0       0       0       0       0       0       0       0       0       
      +0       0       0       0       0       0       0       0       0       0       0       0       0       0       0       
      +0       0       0       0       0       0       0       0       0       0
  2165 ;;      Locals:         0       3       0       0       0       0       0       0       0       0       0       0       
      +0       0       0       0       0       0       0       0       0       0       0       0       0       0       0       
      +0       0       0       0       0       0       0       0       0       0       0       0       0       0       0       
      +0       0       0       0       0       0       0       0       0       0
  2166 ;;      Temps:          0       2       0       0       0       0       0       0       0       0       0       0       
      +0       0       0       0       0       0       0       0       0       0       0       0       0       0       0       
      +0       0       0       0       0       0       0       0       0       0       0       0       0       0       0       
      +0       0       0       0       0       0       0       0       0       0
  2167 ;;      Totals:         0       8       0       0       0       0       0       0       0       0       0       0       
      +0       0       0       0       0       0       0       0       0       0       0       0       0       0       0       
      +0       0       0       0       0       0       0       0       0       0       0       0       0       0       0       
      +0       0       0       0       0       0       0       0       0       0
  2168 ;;Total ram usage:        8 bytes
  2169 ;; Hardware stack levels used:    1
  2170 ;; Hardware stack levels required when called:    4
  2171 ;; This function calls:
  2172 ;;		_vfpfcnvrt
  2173 ;; This function is called by:
  2174 ;;		_printf
  2175 ;; This function uses a non-reentrant model
  2176 ;;
  2177                           
  2178                           
  2179                           ;psect for function _vfprintf
  2180  01FB                     _vfprintf:
  2181                           
  2182                           ;incstack = 0
  2183                           ; Regs used in _vfprintf: [wreg-fsr1h+status,2+status,0+pclath+cstack]
  2184                           ;vfprintf@fp stored from wreg
  2185  01FB  0140               	movlb	0	; select bank0
  2186  01FC  00D3               	movwf	vfprintf@fp
  2187  01FD                     l1366:
  2188                           
  2189                           ;C:\Program Files\Microchip\xc8\v2.31\pic\sources\c99\common\doprnt.c: 1390: int vfprint
      +                          f(FILE *fp, const char *fmt, va_list ap);C:\Program Files\Microchip\xc8\v2.31\pic\source
      +                          s\c99\common\doprnt.c: 1391: {;C:\Program Files\Microchip\xc8\v2.31\pic\sources\c99\comm
      +                          on\doprnt.c: 1393:     char *cfmt;;C:\Program Files\Microchip\xc8\v2.31\pic\sources\c99\
      +                          common\doprnt.c: 1395:     cfmt = (char *)fmt;
  2190  01FD  084F               	movf	vfprintf@fmt+1,w
  2191  01FE  00D5               	movwf	vfprintf@cfmt+1
  2192  01FF  084E               	movf	vfprintf@fmt,w
  2193  0200  00D4               	movwf	vfprintf@cfmt
  2194  0201                     l1368:
  2195                           
  2196                           ;C:\Program Files\Microchip\xc8\v2.31\pic\sources\c99\common\doprnt.c: 1396:     nout = 
      +                          0;
  2197  0201  01C0               	clrf	_nout
  2198  0202  01C1               	clrf	_nout+1
  2199                           
  2200                           ;C:\Program Files\Microchip\xc8\v2.31\pic\sources\c99\common\doprnt.c: 1397:     while (
      +                          *cfmt) {
  2201  0203  2A15               	goto	l1372
  2202  0204                     l1370:
  2203                           
  2204                           ;C:\Program Files\Microchip\xc8\v2.31\pic\sources\c99\common\doprnt.c: 1398:         nou
      +                          t += vfpfcnvrt(fp, &cfmt, ap);
  2205  0204  3054               	movlw	(low (vfprintf@cfmt| 0))& (0+255)
  2206  0205  00D1               	movwf	??_vfprintf
  2207  0206  0851               	movf	??_vfprintf,w
  2208  0207  00FA               	movwf	vfpfcnvrt@fmt
  2209  0208  0850               	movf	vfprintf@ap,w
  2210  0209  00D2               	movwf	??_vfprintf+1
  2211  020A  0852               	movf	??_vfprintf+1,w
  2212  020B  00FB               	movwf	vfpfcnvrt@ap
  2213  020C  0853               	movf	vfprintf@fp,w
  2214  020D  3180  20D1  3181   	fcall	_vfpfcnvrt
  2215  0210  087A               	movf	?_vfpfcnvrt,w
  2216  0211  0140               	movlb	0	; select bank0
  2217  0212  07C0               	addwf	_nout,f
  2218  0213  087B               	movf	?_vfpfcnvrt+1,w
  2219  0214  3DC1               	addwfc	_nout+1,f
  2220  0215                     l1372:
  2221                           
  2222                           ;C:\Program Files\Microchip\xc8\v2.31\pic\sources\c99\common\doprnt.c: 1397:     while (
      +                          *cfmt) {
  2223  0215  0854               	movf	vfprintf@cfmt,w
  2224  0216  0084               	movwf	4
  2225  0217  0855               	movf	vfprintf@cfmt+1,w
  2226  0218  0085               	movwf	5
  2227  0219  0012               	moviw fsr0++
  2228  021A  1D03               	btfss	3,2
  2229  021B  2A1D               	goto	u311
  2230  021C  2A1E               	goto	u310
  2231  021D                     u311:
  2232  021D  2A04               	goto	l1370
  2233  021E                     u310:
  2234  021E                     l1374:
  2235                           
  2236                           ;C:\Program Files\Microchip\xc8\v2.31\pic\sources\c99\common\doprnt.c: 1400:     return 
      +                          nout;
  2237  021E  0841               	movf	_nout+1,w
  2238  021F  00CF               	movwf	?_vfprintf+1
  2239  0220  0840               	movf	_nout,w
  2240  0221  00CE               	movwf	?_vfprintf
  2241  0222                     l862:
  2242  0222  0008               	return
  2243  0223                     __end_of_vfprintf:
  2244                           
  2245                           	psect	text3
  2246  00D1                     __ptext3:	
  2247 ;; *************** function _vfpfcnvrt *****************
  2248 ;; Defined at:
  2249 ;;		line 692 in file "C:\Program Files\Microchip\xc8\v2.31\pic\sources\c99\common\doprnt.c"
  2250 ;; Parameters:    Size  Location     Type
  2251 ;;  fp              1    wreg     PTR struct _IO_FILE
  2252 ;;		 -> NULL(0), 
  2253 ;;  fmt             1   10[COMMON] PTR PTR unsigned char 
  2254 ;;		 -> vfprintf@cfmt(2), 
  2255 ;;  ap              1   11[COMMON] PTR PTR void 
  2256 ;;		 -> printf@ap(1), 
  2257 ;; Auto vars:     Size  Location     Type
  2258 ;;  fp              1    5[BANK0 ] PTR struct _IO_FILE
  2259 ;;		 -> NULL(0), 
  2260 ;;  llu             8    0        unsigned long long 
  2261 ;;  ll              8    0        long long 
  2262 ;;  f               4    0        long long 
  2263 ;;  ct              3    0        unsigned char [3]
  2264 ;;  vp              2    0        PTR void 
  2265 ;;  i               2    0        int 
  2266 ;;  done            2    0        int 
  2267 ;;  cp              2    0        PTR unsigned char 
  2268 ;;  c               1    0        unsigned char 
  2269 ;; Return value:  Size  Location     Type
  2270 ;;                  2   10[COMMON] int 
  2271 ;; Registers used:
  2272 ;;		wreg, fsr0l, fsr0h, fsr1l, fsr1h, status,2, status,0, pclath, cstack
  2273 ;; Tracked objects:
  2274 ;;		On entry : 0/0
  2275 ;;		On exit  : 0/0
  2276 ;;		Unchanged: 0/0
  2277 ;; Data sizes:     COMMON   BANK0   BANK1   BANK2   BANK3   BANK4   BANK5   BANK6   BANK7   BANK8   BANK9  BANK10  BANK1
      +1  BANK12  BANK13  BANK14  BANK15  BANK16  BANK17  BANK18  BANK19  BANK20  BANK21  BANK22  BANK23  BANK24  BANK25  BANK2
      +6  BANK27  BANK28  BANK29  BANK30  BANK31  BANK32  BANK33  BANK34  BANK35  BANK36  BANK37  BANK38  BANK39  BANK40  BANK4
      +1  BANK42  BANK43  BANK44  BANK45  BANK46  BANK47  BANK48  BANK49  BANK50
  2278 ;;      Params:         2       0       0       0       0       0       0       0       0       0       0       0       
      +0       0       0       0       0       0       0       0       0       0       0       0       0       0       0       
      +0       0       0       0       0       0       0       0       0       0       0       0       0       0       0       
      +0       0       0       0       0       0       0       0       0       0
  2279 ;;      Locals:         0       1       0       0       0       0       0       0       0       0       0       0       
      +0       0       0       0       0       0       0       0       0       0       0       0       0       0       0       
      +0       0       0       0       0       0       0       0       0       0       0       0       0       0       0       
      +0       0       0       0       0       0       0       0       0       0
  2280 ;;      Temps:          0       5       0       0       0       0       0       0       0       0       0       0       
      +0       0       0       0       0       0       0       0       0       0       0       0       0       0       0       
      +0       0       0       0       0       0       0       0       0       0       0       0       0       0       0       
      +0       0       0       0       0       0       0       0       0       0
  2281 ;;      Totals:         2       6       0       0       0       0       0       0       0       0       0       0       
      +0       0       0       0       0       0       0       0       0       0       0       0       0       0       0       
      +0       0       0       0       0       0       0       0       0       0       0       0       0       0       0       
      +0       0       0       0       0       0       0       0       0       0
  2282 ;;Total ram usage:        8 bytes
  2283 ;; Hardware stack levels used:    1
  2284 ;; Hardware stack levels required when called:    3
  2285 ;; This function calls:
  2286 ;;		_fputc
  2287 ;; This function is called by:
  2288 ;;		_vfprintf
  2289 ;; This function uses a non-reentrant model
  2290 ;;
  2291                           
  2292                           
  2293                           ;psect for function _vfpfcnvrt
  2294  00D1                     _vfpfcnvrt:
  2295                           
  2296                           ;incstack = 0
  2297                           ; Regs used in _vfpfcnvrt: [wreg-fsr1h+status,2+status,0+pclath+cstack]
  2298                           ;vfpfcnvrt@fp stored from wreg
  2299  00D1  0140               	movlb	0	; select bank0
  2300  00D2  00CD               	movwf	vfpfcnvrt@fp
  2301  00D3                     l1334:
  2302                           
  2303                           ;C:\Program Files\Microchip\xc8\v2.31\pic\sources\c99\common\doprnt.c: 692: static int v
      +                          fpfcnvrt(FILE *fp, char *fmt[], va_list ap);C:\Program Files\Microchip\xc8\v2.31\pic\sou
      +                          rces\c99\common\doprnt.c: 693: {;C:\Program Files\Microchip\xc8\v2.31\pic\sources\c99\co
      +                          mmon\doprnt.c: 694:     char c, *cp, ct[3];;C:\Program Files\Microchip\xc8\v2.31\pic\sou
      +                          rces\c99\common\doprnt.c: 695:     int done, i;;C:\Program Files\Microchip\xc8\v2.31\pic
      +                          \sources\c99\common\doprnt.c: 696:     long long ll;;C:\Program Files\Microchip\xc8\v2.3
      +                          1\pic\sources\c99\common\doprnt.c: 697:     unsigned long long llu;
  2304  00D3  087A               	movf	vfpfcnvrt@fmt,w
  2305  00D4  0086               	movwf	6
  2306  00D5  0187               	clrf	7
  2307  00D6  3F40               	moviw [0]fsr1
  2308  00D7  00C8               	movwf	??_vfpfcnvrt
  2309  00D8  3F41               	moviw [1]fsr1
  2310  00D9  00C9               	movwf	??_vfpfcnvrt+1
  2311  00DA  0848               	movf	??_vfpfcnvrt,w
  2312  00DB  0084               	movwf	4
  2313  00DC  0849               	movf	??_vfpfcnvrt+1,w
  2314  00DD  0085               	movwf	5
  2315  00DE  0012               	moviw fsr0++
  2316  00DF  3A25               	xorlw	37
  2317  00E0  1D03               	btfss	3,2
  2318  00E1  28E3               	goto	u291
  2319  00E2  28E4               	goto	u290
  2320  00E3                     u291:
  2321  00E3  2928               	goto	l1358
  2322  00E4                     u290:
  2323  00E4                     l1336:
  2324                           
  2325                           ;C:\Program Files\Microchip\xc8\v2.31\pic\sources\c99\common\doprnt.c: 703:         ++*f
      +                          mt;
  2326  00E4  087A               	movf	vfpfcnvrt@fmt,w
  2327  00E5  0086               	movwf	6
  2328  00E6  0187               	clrf	7
  2329  00E7  3001               	movlw	1
  2330  00E8  0781               	addwf	1,f
  2331  00E9  3141               	addfsr 1,1
  2332  00EA  1803               	skipnc
  2333  00EB  0A81               	incf	1,f
  2334  00EC                     l1338:
  2335                           
  2336                           ;C:\Program Files\Microchip\xc8\v2.31\pic\sources\c99\common\doprnt.c: 705:         flag
      +                          s = width = 0;
  2337  00EC  01C2               	clrf	_width
  2338  00ED  01C3               	clrf	_width+1
  2339  00EE  01C6               	clrf	_flags
  2340  00EF  01C7               	clrf	_flags+1
  2341  00F0                     l1340:
  2342                           
  2343                           ;C:\Program Files\Microchip\xc8\v2.31\pic\sources\c99\common\doprnt.c: 706:         prec
      +                           = -1;
  2344  00F0  30FF               	movlw	255
  2345  00F1  00C4               	movwf	_prec
  2346  00F2  30FF               	movlw	255
  2347  00F3  00C5               	movwf	_prec+1
  2348  00F4                     l1342:
  2349                           
  2350                           ;C:\Program Files\Microchip\xc8\v2.31\pic\sources\c99\common\doprnt.c: 1372:         if 
      +                          ((*fmt)[0] == '%') {
  2351  00F4  087A               	movf	vfpfcnvrt@fmt,w
  2352  00F5  0086               	movwf	6
  2353  00F6  0187               	clrf	7
  2354  00F7  3F40               	moviw [0]fsr1
  2355  00F8  00C8               	movwf	??_vfpfcnvrt
  2356  00F9  3F41               	moviw [1]fsr1
  2357  00FA  00C9               	movwf	??_vfpfcnvrt+1
  2358  00FB  0848               	movf	??_vfpfcnvrt,w
  2359  00FC  0084               	movwf	4
  2360  00FD  0849               	movf	??_vfpfcnvrt+1,w
  2361  00FE  0085               	movwf	5
  2362  00FF  0012               	moviw fsr0++
  2363  0100  3A25               	xorlw	37
  2364  0101  1D03               	btfss	3,2
  2365  0102  2904               	goto	u301
  2366  0103  2905               	goto	u300
  2367  0104                     u301:
  2368  0104  291D               	goto	l1352
  2369  0105                     u300:
  2370  0105                     l1344:
  2371                           
  2372                           ;C:\Program Files\Microchip\xc8\v2.31\pic\sources\c99\common\doprnt.c: 1373:            
      +                           ++*fmt;
  2373  0105  087A               	movf	vfpfcnvrt@fmt,w
  2374  0106  0086               	movwf	6
  2375  0107  0187               	clrf	7
  2376  0108  3001               	movlw	1
  2377  0109  0781               	addwf	1,f
  2378  010A  3141               	addfsr 1,1
  2379  010B  1803               	skipnc
  2380  010C  0A81               	incf	1,f
  2381  010D                     l1346:
  2382                           
  2383                           ;C:\Program Files\Microchip\xc8\v2.31\pic\sources\c99\common\doprnt.c: 1374:            
      +                           fputc((int)'%', fp);
  2384  010D  3025               	movlw	37
  2385  010E  00F2               	movwf	fputc@c
  2386  010F  3000               	movlw	0
  2387  0110  00F3               	movwf	fputc@c+1
  2388  0111  084D               	movf	vfpfcnvrt@fp,w
  2389  0112  00C8               	movwf	??_vfpfcnvrt
  2390  0113  0848               	movf	??_vfpfcnvrt,w
  2391  0114  00F4               	movwf	fputc@fp
  2392  0115  3181  2190  3180   	fcall	_fputc
  2393  0118                     l1348:
  2394                           
  2395                           ;C:\Program Files\Microchip\xc8\v2.31\pic\sources\c99\common\doprnt.c: 1375:            
      +                           return 1;
  2396  0118  3001               	movlw	1
  2397  0119  00FA               	movwf	?_vfpfcnvrt
  2398  011A  3000               	movlw	0
  2399  011B  00FB               	movwf	?_vfpfcnvrt+1
  2400  011C  294A               	goto	l856
  2401  011D                     l1352:
  2402                           
  2403                           ;C:\Program Files\Microchip\xc8\v2.31\pic\sources\c99\common\doprnt.c: 1379:         ++*
      +                          fmt;
  2404  011D  087A               	movf	vfpfcnvrt@fmt,w
  2405  011E  0086               	movwf	6
  2406  011F  0187               	clrf	7
  2407  0120  3001               	movlw	1
  2408  0121  0781               	addwf	1,f
  2409  0122  3141               	addfsr 1,1
  2410  0123  1803               	skipnc
  2411  0124  0A81               	incf	1,f
  2412  0125                     l1354:
  2413                           
  2414                           ;C:\Program Files\Microchip\xc8\v2.31\pic\sources\c99\common\doprnt.c: 1380:         ret
      +                          urn 0;
  2415  0125  01FA               	clrf	?_vfpfcnvrt
  2416  0126  01FB               	clrf	?_vfpfcnvrt+1
  2417  0127  294A               	goto	l856
  2418  0128                     l1358:
  2419                           
  2420                           ;C:\Program Files\Microchip\xc8\v2.31\pic\sources\c99\common\doprnt.c: 1384:     fputc((
      +                          int)(*fmt)[0], fp);
  2421  0128  087A               	movf	vfpfcnvrt@fmt,w
  2422  0129  0086               	movwf	6
  2423  012A  0187               	clrf	7
  2424  012B  3F40               	moviw [0]fsr1
  2425  012C  00C8               	movwf	??_vfpfcnvrt
  2426  012D  3F41               	moviw [1]fsr1
  2427  012E  00C9               	movwf	??_vfpfcnvrt+1
  2428  012F  0848               	movf	??_vfpfcnvrt,w
  2429  0130  0084               	movwf	4
  2430  0131  0849               	movf	??_vfpfcnvrt+1,w
  2431  0132  0085               	movwf	5
  2432  0133  0800               	movf	0,w	;code access
  2433  0134  00CA               	movwf	??_vfpfcnvrt+2
  2434  0135  01CB               	clrf	??_vfpfcnvrt+3
  2435  0136  084A               	movf	??_vfpfcnvrt+2,w
  2436  0137  00F2               	movwf	fputc@c
  2437  0138  084B               	movf	??_vfpfcnvrt+3,w
  2438  0139  00F3               	movwf	fputc@c+1
  2439  013A  084D               	movf	vfpfcnvrt@fp,w
  2440  013B  00CC               	movwf	??_vfpfcnvrt+4
  2441  013C  084C               	movf	??_vfpfcnvrt+4,w
  2442  013D  00F4               	movwf	fputc@fp
  2443  013E  3181  2190  3180   	fcall	_fputc
  2444  0141                     l1360:
  2445                           
  2446                           ;C:\Program Files\Microchip\xc8\v2.31\pic\sources\c99\common\doprnt.c: 1385:     ++*fmt;
  2447  0141  087A               	movf	vfpfcnvrt@fmt,w
  2448  0142  0086               	movwf	6
  2449  0143  0187               	clrf	7
  2450  0144  3001               	movlw	1
  2451  0145  0781               	addwf	1,f
  2452  0146  3141               	addfsr 1,1
  2453  0147  1803               	skipnc
  2454  0148  0A81               	incf	1,f
  2455  0149  2918               	goto	l1348
  2456  014A                     l856:
  2457  014A  0008               	return
  2458  014B                     __end_of_vfpfcnvrt:
  2459                           
  2460                           	psect	text4
  2461  0190                     __ptext4:	
  2462 ;; *************** function _fputc *****************
  2463 ;; Defined at:
  2464 ;;		line 8 in file "C:\Program Files\Microchip\xc8\v2.31\pic\sources\c99\common\nf_fputc.c"
  2465 ;; Parameters:    Size  Location     Type
  2466 ;;  c               2    2[COMMON] int 
  2467 ;;  fp              1    4[COMMON] PTR struct _IO_FILE
  2468 ;;		 -> NULL(0), 
  2469 ;; Auto vars:     Size  Location     Type
  2470 ;;		None
  2471 ;; Return value:  Size  Location     Type
  2472 ;;                  2    2[COMMON] int 
  2473 ;; Registers used:
  2474 ;;		wreg, fsr1l, fsr1h, status,2, status,0, pclath, cstack
  2475 ;; Tracked objects:
  2476 ;;		On entry : 0/0
  2477 ;;		On exit  : 0/0
  2478 ;;		Unchanged: 0/0
  2479 ;; Data sizes:     COMMON   BANK0   BANK1   BANK2   BANK3   BANK4   BANK5   BANK6   BANK7   BANK8   BANK9  BANK10  BANK1
      +1  BANK12  BANK13  BANK14  BANK15  BANK16  BANK17  BANK18  BANK19  BANK20  BANK21  BANK22  BANK23  BANK24  BANK25  BANK2
      +6  BANK27  BANK28  BANK29  BANK30  BANK31  BANK32  BANK33  BANK34  BANK35  BANK36  BANK37  BANK38  BANK39  BANK40  BANK4
      +1  BANK42  BANK43  BANK44  BANK45  BANK46  BANK47  BANK48  BANK49  BANK50
  2480 ;;      Params:         3       0       0       0       0       0       0       0       0       0       0       0       
      +0       0       0       0       0       0       0       0       0       0       0       0       0       0       0       
      +0       0       0       0       0       0       0       0       0       0       0       0       0       0       0       
      +0       0       0       0       0       0       0       0       0       0
  2481 ;;      Locals:         0       0       0       0       0       0       0       0       0       0       0       0       
      +0       0       0       0       0       0       0       0       0       0       0       0       0       0       0       
      +0       0       0       0       0       0       0       0       0       0       0       0       0       0       0       
      +0       0       0       0       0       0       0       0       0       0
  2482 ;;      Temps:          5       0       0       0       0       0       0       0       0       0       0       0       
      +0       0       0       0       0       0       0       0       0       0       0       0       0       0       0       
      +0       0       0       0       0       0       0       0       0       0       0       0       0       0       0       
      +0       0       0       0       0       0       0       0       0       0
  2483 ;;      Totals:         8       0       0       0       0       0       0       0       0       0       0       0       
      +0       0       0       0       0       0       0       0       0       0       0       0       0       0       0       
      +0       0       0       0       0       0       0       0       0       0       0       0       0       0       0       
      +0       0       0       0       0       0       0       0       0       0
  2484 ;;Total ram usage:        8 bytes
  2485 ;; Hardware stack levels used:    1
  2486 ;; Hardware stack levels required when called:    2
  2487 ;; This function calls:
  2488 ;;		_putch
  2489 ;; This function is called by:
  2490 ;;		_vfpfcnvrt
  2491 ;; This function uses a non-reentrant model
  2492 ;;
  2493                           
  2494                           
  2495                           ;psect for function _fputc
  2496  0190                     _fputc:
  2497  0190                     l1320:	
  2498                           ;incstack = 0
  2499                           ; Regs used in _fputc: [wreg+fsr1l+fsr1h+status,2+status,0+pclath+cstack]
  2500                           
  2501  0190  0874               	movf	fputc@fp,w
  2502  0191  1903               	btfsc	3,2
  2503  0192  2994               	goto	u251
  2504  0193  2995               	goto	u250
  2505  0194                     u251:
  2506  0194  299A               	goto	l1324
  2507  0195                     u250:
  2508  0195                     l1322:
  2509  0195  0874               	movf	fputc@fp,w
  2510  0196  1D03               	btfss	3,2
  2511  0197  2999               	goto	u261
  2512  0198  299A               	goto	u260
  2513  0199                     u261:
  2514  0199  299F               	goto	l1326
  2515  019A                     u260:
  2516  019A                     l1324:
  2517  019A  0872               	movf	fputc@c,w
  2518  019B  3182  2265  3181   	fcall	_putch
  2519  019E  29CE               	goto	l874
  2520  019F                     l1326:
  2521  019F  0874               	movf	fputc@fp,w
  2522  01A0  3E03               	addlw	3
  2523  01A1  0086               	movwf	6
  2524  01A2  0187               	clrf	7
  2525  01A3  0016               	moviw fsr1++
  2526  01A4  0401               	iorwf	1,w
  2527  01A5  1903               	btfsc	3,2
  2528  01A6  29A8               	goto	u271
  2529  01A7  29A9               	goto	u270
  2530  01A8                     u271:
  2531  01A8  29C6               	goto	l1330
  2532  01A9                     u270:
  2533  01A9                     l1328:
  2534  01A9  0874               	movf	fputc@fp,w
  2535  01AA  3E03               	addlw	3
  2536  01AB  0086               	movwf	6
  2537  01AC  0187               	clrf	7
  2538  01AD  3F40               	moviw [0]fsr1
  2539  01AE  00F5               	movwf	??_fputc
  2540  01AF  3F41               	moviw [1]fsr1
  2541  01B0  00F6               	movwf	??_fputc+1
  2542  01B1  0A74               	incf	fputc@fp,w
  2543  01B2  0086               	movwf	6
  2544  01B3  0187               	clrf	7
  2545  01B4  3F40               	moviw [0]fsr1
  2546  01B5  00F7               	movwf	??_fputc+2
  2547  01B6  3F41               	moviw [1]fsr1
  2548  01B7  00F8               	movwf	??_fputc+3
  2549  01B8  0878               	movf	??_fputc+3,w
  2550  01B9  3A80               	xorlw	128
  2551  01BA  00F9               	movwf	??_fputc+4
  2552  01BB  0876               	movf	??_fputc+1,w
  2553  01BC  3A80               	xorlw	128
  2554  01BD  0279               	subwf	??_fputc+4,w
  2555  01BE  1D03               	skipz
  2556  01BF  29C2               	goto	u285
  2557  01C0  0875               	movf	??_fputc,w
  2558  01C1  0277               	subwf	??_fputc+2,w
  2559  01C2                     u285:
  2560  01C2  1803               	skipnc
  2561  01C3  29C5               	goto	u281
  2562  01C4  29C6               	goto	u280
  2563  01C5                     u281:
  2564  01C5  29CE               	goto	l874
  2565  01C6                     u280:
  2566  01C6                     l1330:
  2567  01C6  0A74               	incf	fputc@fp,w
  2568  01C7  0086               	movwf	6
  2569  01C8  0187               	clrf	7
  2570  01C9  3001               	movlw	1
  2571  01CA  0781               	addwf	1,f
  2572  01CB  3141               	addfsr 1,1
  2573  01CC  1803               	skipnc
  2574  01CD  0A81               	incf	1,f
  2575  01CE                     l874:
  2576  01CE  0008               	return
  2577  01CF                     __end_of_fputc:
  2578                           
  2579                           	psect	text5
  2580  0265                     __ptext5:	
  2581 ;; *************** function _putch *****************
  2582 ;; Defined at:
  2583 ;;		line 130 in file "AQM0802.c"
  2584 ;; Parameters:    Size  Location     Type
  2585 ;;  data            1    wreg     unsigned char 
  2586 ;; Auto vars:     Size  Location     Type
  2587 ;;  data            1    1[COMMON] unsigned char 
  2588 ;; Return value:  Size  Location     Type
  2589 ;;                  1    wreg      void 
  2590 ;; Registers used:
  2591 ;;		wreg
  2592 ;; Tracked objects:
  2593 ;;		On entry : 0/0
  2594 ;;		On exit  : 0/0
  2595 ;;		Unchanged: 0/0
  2596 ;; Data sizes:     COMMON   BANK0   BANK1   BANK2   BANK3   BANK4   BANK5   BANK6   BANK7   BANK8   BANK9  BANK10  BANK1
      +1  BANK12  BANK13  BANK14  BANK15  BANK16  BANK17  BANK18  BANK19  BANK20  BANK21  BANK22  BANK23  BANK24  BANK25  BANK2
      +6  BANK27  BANK28  BANK29  BANK30  BANK31  BANK32  BANK33  BANK34  BANK35  BANK36  BANK37  BANK38  BANK39  BANK40  BANK4
      +1  BANK42  BANK43  BANK44  BANK45  BANK46  BANK47  BANK48  BANK49  BANK50
  2597 ;;      Params:         0       0       0       0       0       0       0       0       0       0       0       0       
      +0       0       0       0       0       0       0       0       0       0       0       0       0       0       0       
      +0       0       0       0       0       0       0       0       0       0       0       0       0       0       0       
      +0       0       0       0       0       0       0       0       0       0
  2598 ;;      Locals:         1       0       0       0       0       0       0       0       0       0       0       0       
      +0       0       0       0       0       0       0       0       0       0       0       0       0       0       0       
      +0       0       0       0       0       0       0       0       0       0       0       0       0       0       0       
      +0       0       0       0       0       0       0       0       0       0
  2599 ;;      Temps:          0       0       0       0       0       0       0       0       0       0       0       0       
      +0       0       0       0       0       0       0       0       0       0       0       0       0       0       0       
      +0       0       0       0       0       0       0       0       0       0       0       0       0       0       0       
      +0       0       0       0       0       0       0       0       0       0
  2600 ;;      Totals:         1       0       0       0       0       0       0       0       0       0       0       0       
      +0       0       0       0       0       0       0       0       0       0       0       0       0       0       0       
      +0       0       0       0       0       0       0       0       0       0       0       0       0       0       0       
      +0       0       0       0       0       0       0       0       0       0
  2601 ;;Total ram usage:        1 bytes
  2602 ;; Hardware stack levels used:    1
  2603 ;; Hardware stack levels required when called:    1
  2604 ;; This function calls:
  2605 ;;		Nothing
  2606 ;; This function is called by:
  2607 ;;		_fputc
  2608 ;; This function uses a non-reentrant model
  2609 ;;
  2610                           
  2611                           
  2612                           ;psect for function _putch
  2613  0265                     _putch:
  2614                           
  2615                           ;incstack = 0
  2616                           ; Regs used in _putch: [wreg]
  2617                           ;putch@data stored from wreg
  2618  0265  00F1               	movwf	putch@data
  2619  0266                     l1314:
  2620  0266                     l56:	
  2621                           ;AQM0802.c: 130: void putch(uint8_t data);AQM0802.c: 131: {;AQM0802.c: 134:     while(!T
      +                          RMT);
  2622                           
  2623  0266  0142               	movlb	2	; select bank2
  2624  0267  1C9E               	btfss	30,1	;volatile
  2625  0268  2A6A               	goto	u241
  2626  0269  2A6B               	goto	u240
  2627  026A                     u241:
  2628  026A  2A66               	goto	l56
  2629  026B                     u240:
  2630  026B                     l1316:
  2631                           
  2632                           ;AQM0802.c: 135:     TX1REG = data;
  2633  026B  0871               	movf	putch@data,w
  2634  026C  009A               	movwf	26	;volatile
  2635  026D                     l59:
  2636  026D  0008               	return
  2637  026E                     __end_of_putch:
  2638                           
  2639                           	psect	text6
  2640  01CF                     __ptext6:	
  2641 ;; *************** function _lcdInitialize *****************
  2642 ;; Defined at:
  2643 ;;		line 95 in file "AQM0802.c"
  2644 ;; Parameters:    Size  Location     Type
  2645 ;;		None
  2646 ;; Auto vars:     Size  Location     Type
  2647 ;;		None
  2648 ;; Return value:  Size  Location     Type
  2649 ;;                  1    wreg      void 
  2650 ;; Registers used:
  2651 ;;		wreg, status,2, status,0, pclath, cstack
  2652 ;; Tracked objects:
  2653 ;;		On entry : 0/0
  2654 ;;		On exit  : 0/0
  2655 ;;		Unchanged: 0/0
  2656 ;; Data sizes:     COMMON   BANK0   BANK1   BANK2   BANK3   BANK4   BANK5   BANK6   BANK7   BANK8   BANK9  BANK10  BANK1
      +1  BANK12  BANK13  BANK14  BANK15  BANK16  BANK17  BANK18  BANK19  BANK20  BANK21  BANK22  BANK23  BANK24  BANK25  BANK2
      +6  BANK27  BANK28  BANK29  BANK30  BANK31  BANK32  BANK33  BANK34  BANK35  BANK36  BANK37  BANK38  BANK39  BANK40  BANK4
      +1  BANK42  BANK43  BANK44  BANK45  BANK46  BANK47  BANK48  BANK49  BANK50
  2657 ;;      Params:         0       0       0       0       0       0       0       0       0       0       0       0       
      +0       0       0       0       0       0       0       0       0       0       0       0       0       0       0       
      +0       0       0       0       0       0       0       0       0       0       0       0       0       0       0       
      +0       0       0       0       0       0       0       0       0       0
  2658 ;;      Locals:         0       0       0       0       0       0       0       0       0       0       0       0       
      +0       0       0       0       0       0       0       0       0       0       0       0       0       0       0       
      +0       0       0       0       0       0       0       0       0       0       0       0       0       0       0       
      +0       0       0       0       0       0       0       0       0       0
  2659 ;;      Temps:          1       0       0       0       0       0       0       0       0       0       0       0       
      +0       0       0       0       0       0       0       0       0       0       0       0       0       0       0       
      +0       0       0       0       0       0       0       0       0       0       0       0       0       0       0       
      +0       0       0       0       0       0       0       0       0       0
  2660 ;;      Totals:         1       0       0       0       0       0       0       0       0       0       0       0       
      +0       0       0       0       0       0       0       0       0       0       0       0       0       0       0       
      +0       0       0       0       0       0       0       0       0       0       0       0       0       0       0       
      +0       0       0       0       0       0       0       0       0       0
  2661 ;;Total ram usage:        1 bytes
  2662 ;; Hardware stack levels used:    1
  2663 ;; Hardware stack levels required when called:    4
  2664 ;; This function calls:
  2665 ;;		_lcdSendCommandData
  2666 ;; This function is called by:
  2667 ;;		_main
  2668 ;; This function uses a non-reentrant model
  2669 ;;
  2670                           
  2671                           
  2672                           ;psect for function _lcdInitialize
  2673  01CF                     _lcdInitialize:
  2674  01CF                     l1268:	
  2675                           ;incstack = 0
  2676                           ; Regs used in _lcdInitialize: [wreg+status,2+status,0+pclath+cstack]
  2677                           
  2678                           
  2679                           ;AQM0802.c: 98:     lcdSendCommandData(0x38);
  2680  01CF  3038               	movlw	56
  2681  01D0  3182  2249  3181   	fcall	_lcdSendCommandData
  2682                           
  2683                           ;AQM0802.c: 99:     lcdSendCommandData(0x39);
  2684  01D3  3039               	movlw	57
  2685  01D4  3182  2249  3181   	fcall	_lcdSendCommandData
  2686                           
  2687                           ;AQM0802.c: 100:     lcdSendCommandData(0x14);
  2688  01D7  3014               	movlw	20
  2689  01D8  3182  2249  3181   	fcall	_lcdSendCommandData
  2690                           
  2691                           ;AQM0802.c: 101:     lcdSendCommandData(0x70);
  2692  01DB  3070               	movlw	112
  2693  01DC  3182  2249  3181   	fcall	_lcdSendCommandData
  2694                           
  2695                           ;AQM0802.c: 102:     lcdSendCommandData(0x56);
  2696  01DF  3056               	movlw	86
  2697  01E0  3182  2249  3181   	fcall	_lcdSendCommandData
  2698                           
  2699                           ;AQM0802.c: 103:     lcdSendCommandData(0x6c);
  2700  01E3  306C               	movlw	108
  2701  01E4  3182  2249  3181   	fcall	_lcdSendCommandData
  2702  01E7                     l1270:
  2703                           
  2704                           ;AQM0802.c: 106:     _delay((unsigned long)((200)*(3200000/4000.0)));
  2705  01E7  30D0               	movlw	208
  2706  01E8  00F7               	movwf	??_lcdInitialize
  2707  01E9  30CA               	movlw	202
  2708  01EA                     u347:
  2709  01EA  0B89               	decfsz	9,f
  2710  01EB  29EA               	goto	u347
  2711  01EC  0BF7               	decfsz	??_lcdInitialize,f
  2712  01ED  29EA               	goto	u347
  2713  01EE                     l1272:
  2714                           
  2715                           ;AQM0802.c: 109:     lcdSendCommandData(0x38);
  2716  01EE  3038               	movlw	56
  2717  01EF  3182  2249  3181   	fcall	_lcdSendCommandData
  2718  01F2                     l1274:
  2719                           
  2720                           ;AQM0802.c: 110:     lcdSendCommandData(0x0c);
  2721  01F2  300C               	movlw	12
  2722  01F3  3182  2249  3181   	fcall	_lcdSendCommandData
  2723  01F6                     l1276:
  2724                           
  2725                           ;AQM0802.c: 111:     lcdSendCommandData(0x01);
  2726  01F6  3001               	movlw	1
  2727  01F7  3182  2249  3181   	fcall	_lcdSendCommandData
  2728  01FA                     l47:
  2729  01FA  0008               	return
  2730  01FB                     __end_of_lcdInitialize:
  2731                           
  2732                           	psect	text7
  2733  0249                     __ptext7:	
  2734 ;; *************** function _lcdSendCommandData *****************
  2735 ;; Defined at:
  2736 ;;		line 69 in file "AQM0802.c"
  2737 ;; Parameters:    Size  Location     Type
  2738 ;;  command         1    wreg     unsigned char 
  2739 ;; Auto vars:     Size  Location     Type
  2740 ;;  command         1    6[COMMON] unsigned char 
  2741 ;; Return value:  Size  Location     Type
  2742 ;;                  1    wreg      void 
  2743 ;; Registers used:
  2744 ;;		wreg, status,2, status,0, pclath, cstack
  2745 ;; Tracked objects:
  2746 ;;		On entry : 0/0
  2747 ;;		On exit  : 0/0
  2748 ;;		Unchanged: 0/0
  2749 ;; Data sizes:     COMMON   BANK0   BANK1   BANK2   BANK3   BANK4   BANK5   BANK6   BANK7   BANK8   BANK9  BANK10  BANK1
      +1  BANK12  BANK13  BANK14  BANK15  BANK16  BANK17  BANK18  BANK19  BANK20  BANK21  BANK22  BANK23  BANK24  BANK25  BANK2
      +6  BANK27  BANK28  BANK29  BANK30  BANK31  BANK32  BANK33  BANK34  BANK35  BANK36  BANK37  BANK38  BANK39  BANK40  BANK4
      +1  BANK42  BANK43  BANK44  BANK45  BANK46  BANK47  BANK48  BANK49  BANK50
  2750 ;;      Params:         0       0       0       0       0       0       0       0       0       0       0       0       
      +0       0       0       0       0       0       0       0       0       0       0       0       0       0       0       
      +0       0       0       0       0       0       0       0       0       0       0       0       0       0       0       
      +0       0       0       0       0       0       0       0       0       0
  2751 ;;      Locals:         1       0       0       0       0       0       0       0       0       0       0       0       
      +0       0       0       0       0       0       0       0       0       0       0       0       0       0       0       
      +0       0       0       0       0       0       0       0       0       0       0       0       0       0       0       
      +0       0       0       0       0       0       0       0       0       0
  2752 ;;      Temps:          1       0       0       0       0       0       0       0       0       0       0       0       
      +0       0       0       0       0       0       0       0       0       0       0       0       0       0       0       
      +0       0       0       0       0       0       0       0       0       0       0       0       0       0       0       
      +0       0       0       0       0       0       0       0       0       0
  2753 ;;      Totals:         2       0       0       0       0       0       0       0       0       0       0       0       
      +0       0       0       0       0       0       0       0       0       0       0       0       0       0       0       
      +0       0       0       0       0       0       0       0       0       0       0       0       0       0       0       
      +0       0       0       0       0       0       0       0       0       0
  2754 ;;Total ram usage:        2 bytes
  2755 ;; Hardware stack levels used:    1
  2756 ;; Hardware stack levels required when called:    3
  2757 ;; This function calls:
  2758 ;;		_lcdI2CProtocol
  2759 ;; This function is called by:
  2760 ;;		_lcdInitialize
  2761 ;;		_lcdClearDisplay
  2762 ;;		_lcdLocateCursor
  2763 ;; This function uses a non-reentrant model
  2764 ;;
  2765                           
  2766                           
  2767                           ;psect for function _lcdSendCommandData
  2768  0249                     _lcdSendCommandData:
  2769                           
  2770                           ;incstack = 0
  2771                           ; Regs used in _lcdSendCommandData: [wreg+status,2+status,0+pclath+cstack]
  2772                           ;lcdSendCommandData@command stored from wreg
  2773  0249  00F6               	movwf	lcdSendCommandData@command
  2774  024A                     l1250:
  2775                           
  2776                           ;AQM0802.c: 69: void lcdSendCommandData(uint8_t command);AQM0802.c: 70: {;AQM0802.c: 72:
      +                               lcdI2CProtocol(0x7c, 0x00, command);
  2777  024A  01F2               	clrf	lcdI2CProtocol@cont_code
  2778  024B  0876               	movf	lcdSendCommandData@command,w
  2779  024C  00F5               	movwf	??_lcdSendCommandData
  2780  024D  0875               	movf	??_lcdSendCommandData,w
  2781  024E  00F3               	movwf	lcdI2CProtocol@data
  2782  024F  307C               	movlw	124
  2783  0250  3182  2223  3182   	fcall	_lcdI2CProtocol
  2784  0253                     l1252:
  2785                           
  2786                           ;AQM0802.c: 77:     _delay((unsigned long)((1)*(3200000/4000.0)));
  2787  0253  30A0               	movlw	160
  2788  0254                     u357:
  2789  0254  3200               	nop2
  2790  0255  0B89               	decfsz	9,f
  2791  0256  2A54               	goto	u357
  2792  0257                     l41:
  2793  0257  0008               	return
  2794  0258                     __end_of_lcdSendCommandData:
  2795                           
  2796                           	psect	text8
  2797  0223                     __ptext8:	
  2798 ;; *************** function _lcdI2CProtocol *****************
  2799 ;; Defined at:
  2800 ;;		line 58 in file "AQM0802.c"
  2801 ;; Parameters:    Size  Location     Type
  2802 ;;  address         1    wreg     unsigned char 
  2803 ;;  cont_code       1    2[COMMON] unsigned char 
  2804 ;;  data            1    3[COMMON] unsigned char 
  2805 ;; Auto vars:     Size  Location     Type
  2806 ;;  address         1    4[COMMON] unsigned char 
  2807 ;; Return value:  Size  Location     Type
  2808 ;;                  1    wreg      void 
  2809 ;; Registers used:
  2810 ;;		wreg, status,2, status,0, pclath, cstack
  2811 ;; Tracked objects:
  2812 ;;		On entry : 0/0
  2813 ;;		On exit  : 0/0
  2814 ;;		Unchanged: 0/0
  2815 ;; Data sizes:     COMMON   BANK0   BANK1   BANK2   BANK3   BANK4   BANK5   BANK6   BANK7   BANK8   BANK9  BANK10  BANK1
      +1  BANK12  BANK13  BANK14  BANK15  BANK16  BANK17  BANK18  BANK19  BANK20  BANK21  BANK22  BANK23  BANK24  BANK25  BANK2
      +6  BANK27  BANK28  BANK29  BANK30  BANK31  BANK32  BANK33  BANK34  BANK35  BANK36  BANK37  BANK38  BANK39  BANK40  BANK4
      +1  BANK42  BANK43  BANK44  BANK45  BANK46  BANK47  BANK48  BANK49  BANK50
  2816 ;;      Params:         2       0       0       0       0       0       0       0       0       0       0       0       
      +0       0       0       0       0       0       0       0       0       0       0       0       0       0       0       
      +0       0       0       0       0       0       0       0       0       0       0       0       0       0       0       
      +0       0       0       0       0       0       0       0       0       0
  2817 ;;      Locals:         1       0       0       0       0       0       0       0       0       0       0       0       
      +0       0       0       0       0       0       0       0       0       0       0       0       0       0       0       
      +0       0       0       0       0       0       0       0       0       0       0       0       0       0       0       
      +0       0       0       0       0       0       0       0       0       0
  2818 ;;      Temps:          0       0       0       0       0       0       0       0       0       0       0       0       
      +0       0       0       0       0       0       0       0       0       0       0       0       0       0       0       
      +0       0       0       0       0       0       0       0       0       0       0       0       0       0       0       
      +0       0       0       0       0       0       0       0       0       0
  2819 ;;      Totals:         3       0       0       0       0       0       0       0       0       0       0       0       
      +0       0       0       0       0       0       0       0       0       0       0       0       0       0       0       
      +0       0       0       0       0       0       0       0       0       0       0       0       0       0       0       
      +0       0       0       0       0       0       0       0       0       0
  2820 ;;Total ram usage:        3 bytes
  2821 ;; Hardware stack levels used:    1
  2822 ;; Hardware stack levels required when called:    2
  2823 ;; This function calls:
  2824 ;;		_i2cProtocolSendData
  2825 ;;		_i2cProtocolStart
  2826 ;;		_i2cProtocolStop
  2827 ;; This function is called by:
  2828 ;;		_lcdSendCommandData
  2829 ;;		_lcdSendCharacterData
  2830 ;; This function uses a non-reentrant model
  2831 ;;
  2832                           
  2833                           
  2834                           ;psect for function _lcdI2CProtocol
  2835  0223                     _lcdI2CProtocol:
  2836                           
  2837                           ;incstack = 0
  2838                           ; Regs used in _lcdI2CProtocol: [wreg+status,2+status,0+pclath+cstack]
  2839                           ;lcdI2CProtocol@address stored from wreg
  2840  0223  00F4               	movwf	lcdI2CProtocol@address
  2841  0224                     l1206:
  2842                           
  2843                           ;AQM0802.c: 58: void lcdI2CProtocol(uint8_t address, uint8_t cont_code, uint8_t data);AQ
      +                          M0802.c: 59: {;AQM0802.c: 60:     i2cProtocolStart();
  2844  0224  3182  227E  3182   	fcall	_i2cProtocolStart
  2845  0227                     l1208:
  2846                           
  2847                           ;AQM0802.c: 61:     i2cProtocolSendData(address);
  2848  0227  0874               	movf	lcdI2CProtocol@address,w
  2849  0228  3182  226E  3182   	fcall	_i2cProtocolSendData
  2850  022B                     l1210:
  2851                           
  2852                           ;AQM0802.c: 62:     i2cProtocolSendData(cont_code);
  2853  022B  0872               	movf	lcdI2CProtocol@cont_code,w
  2854  022C  3182  226E  3182   	fcall	_i2cProtocolSendData
  2855  022F                     l1212:
  2856                           
  2857                           ;AQM0802.c: 63:     i2cProtocolSendData(data);
  2858  022F  0873               	movf	lcdI2CProtocol@data,w
  2859  0230  3182  226E  3182   	fcall	_i2cProtocolSendData
  2860  0233                     l1214:
  2861                           
  2862                           ;AQM0802.c: 64:     i2cProtocolStop();
  2863  0233  3182  2277  3182   	fcall	_i2cProtocolStop
  2864  0236                     l38:
  2865  0236  0008               	return
  2866  0237                     __end_of_lcdI2CProtocol:
  2867                           
  2868                           	psect	text9
  2869  0277                     __ptext9:	
  2870 ;; *************** function _i2cProtocolStop *****************
  2871 ;; Defined at:
  2872 ;;		line 22 in file "AQM0802.c"
  2873 ;; Parameters:    Size  Location     Type
  2874 ;;		None
  2875 ;; Auto vars:     Size  Location     Type
  2876 ;;		None
  2877 ;; Return value:  Size  Location     Type
  2878 ;;                  1    wreg      void 
  2879 ;; Registers used:
  2880 ;;		None
  2881 ;; Tracked objects:
  2882 ;;		On entry : 0/0
  2883 ;;		On exit  : 0/0
  2884 ;;		Unchanged: 0/0
  2885 ;; Data sizes:     COMMON   BANK0   BANK1   BANK2   BANK3   BANK4   BANK5   BANK6   BANK7   BANK8   BANK9  BANK10  BANK1
      +1  BANK12  BANK13  BANK14  BANK15  BANK16  BANK17  BANK18  BANK19  BANK20  BANK21  BANK22  BANK23  BANK24  BANK25  BANK2
      +6  BANK27  BANK28  BANK29  BANK30  BANK31  BANK32  BANK33  BANK34  BANK35  BANK36  BANK37  BANK38  BANK39  BANK40  BANK4
      +1  BANK42  BANK43  BANK44  BANK45  BANK46  BANK47  BANK48  BANK49  BANK50
  2886 ;;      Params:         0       0       0       0       0       0       0       0       0       0       0       0       
      +0       0       0       0       0       0       0       0       0       0       0       0       0       0       0       
      +0       0       0       0       0       0       0       0       0       0       0       0       0       0       0       
      +0       0       0       0       0       0       0       0       0       0
  2887 ;;      Locals:         0       0       0       0       0       0       0       0       0       0       0       0       
      +0       0       0       0       0       0       0       0       0       0       0       0       0       0       0       
      +0       0       0       0       0       0       0       0       0       0       0       0       0       0       0       
      +0       0       0       0       0       0       0       0       0       0
  2888 ;;      Temps:          0       0       0       0       0       0       0       0       0       0       0       0       
      +0       0       0       0       0       0       0       0       0       0       0       0       0       0       0       
      +0       0       0       0       0       0       0       0       0       0       0       0       0       0       0       
      +0       0       0       0       0       0       0       0       0       0
  2889 ;;      Totals:         0       0       0       0       0       0       0       0       0       0       0       0       
      +0       0       0       0       0       0       0       0       0       0       0       0       0       0       0       
      +0       0       0       0       0       0       0       0       0       0       0       0       0       0       0       
      +0       0       0       0       0       0       0       0       0       0
  2890 ;;Total ram usage:        0 bytes
  2891 ;; Hardware stack levels used:    1
  2892 ;; Hardware stack levels required when called:    1
  2893 ;; This function calls:
  2894 ;;		Nothing
  2895 ;; This function is called by:
  2896 ;;		_lcdI2CProtocol
  2897 ;; This function uses a non-reentrant model
  2898 ;;
  2899                           
  2900                           
  2901                           ;psect for function _i2cProtocolStop
  2902  0277                     _i2cProtocolStop:
  2903  0277                     l898:	
  2904                           ;incstack = 0
  2905                           ; Regs used in _i2cProtocolStop: []
  2906                           
  2907                           
  2908                           ;AQM0802.c: 26:     SSP2CON2bits.PEN = 1;
  2909  0277  0143               	movlb	3	; select bank3
  2910  0278  151B               	bsf	27,2	;volatile
  2911  0279                     l21:	
  2912                           ;AQM0802.c: 27:     while(SSP2CON2bits.PEN);
  2913                           
  2914  0279  191B               	btfsc	27,2	;volatile
  2915  027A  2A7C               	goto	u31
  2916  027B  2A7D               	goto	u30
  2917  027C                     u31:
  2918  027C  2A79               	goto	l21
  2919  027D                     u30:
  2920  027D                     l24:
  2921  027D  0008               	return
  2922  027E                     __end_of_i2cProtocolStop:
  2923                           
  2924                           	psect	text10
  2925  027E                     __ptext10:	
  2926 ;; *************** function _i2cProtocolStart *****************
  2927 ;; Defined at:
  2928 ;;		line 12 in file "AQM0802.c"
  2929 ;; Parameters:    Size  Location     Type
  2930 ;;		None
  2931 ;; Auto vars:     Size  Location     Type
  2932 ;;		None
  2933 ;; Return value:  Size  Location     Type
  2934 ;;                  1    wreg      void 
  2935 ;; Registers used:
  2936 ;;		None
  2937 ;; Tracked objects:
  2938 ;;		On entry : 0/0
  2939 ;;		On exit  : 0/0
  2940 ;;		Unchanged: 0/0
  2941 ;; Data sizes:     COMMON   BANK0   BANK1   BANK2   BANK3   BANK4   BANK5   BANK6   BANK7   BANK8   BANK9  BANK10  BANK1
      +1  BANK12  BANK13  BANK14  BANK15  BANK16  BANK17  BANK18  BANK19  BANK20  BANK21  BANK22  BANK23  BANK24  BANK25  BANK2
      +6  BANK27  BANK28  BANK29  BANK30  BANK31  BANK32  BANK33  BANK34  BANK35  BANK36  BANK37  BANK38  BANK39  BANK40  BANK4
      +1  BANK42  BANK43  BANK44  BANK45  BANK46  BANK47  BANK48  BANK49  BANK50
  2942 ;;      Params:         0       0       0       0       0       0       0       0       0       0       0       0       
      +0       0       0       0       0       0       0       0       0       0       0       0       0       0       0       
      +0       0       0       0       0       0       0       0       0       0       0       0       0       0       0       
      +0       0       0       0       0       0       0       0       0       0
  2943 ;;      Locals:         0       0       0       0       0       0       0       0       0       0       0       0       
      +0       0       0       0       0       0       0       0       0       0       0       0       0       0       0       
      +0       0       0       0       0       0       0       0       0       0       0       0       0       0       0       
      +0       0       0       0       0       0       0       0       0       0
  2944 ;;      Temps:          0       0       0       0       0       0       0       0       0       0       0       0       
      +0       0       0       0       0       0       0       0       0       0       0       0       0       0       0       
      +0       0       0       0       0       0       0       0       0       0       0       0       0       0       0       
      +0       0       0       0       0       0       0       0       0       0
  2945 ;;      Totals:         0       0       0       0       0       0       0       0       0       0       0       0       
      +0       0       0       0       0       0       0       0       0       0       0       0       0       0       0       
      +0       0       0       0       0       0       0       0       0       0       0       0       0       0       0       
      +0       0       0       0       0       0       0       0       0       0
  2946 ;;Total ram usage:        0 bytes
  2947 ;; Hardware stack levels used:    1
  2948 ;; Hardware stack levels required when called:    1
  2949 ;; This function calls:
  2950 ;;		Nothing
  2951 ;; This function is called by:
  2952 ;;		_lcdI2CProtocol
  2953 ;; This function uses a non-reentrant model
  2954 ;;
  2955                           
  2956                           
  2957                           ;psect for function _i2cProtocolStart
  2958  027E                     _i2cProtocolStart:
  2959  027E                     l896:	
  2960                           ;incstack = 0
  2961                           ; Regs used in _i2cProtocolStart: []
  2962                           
  2963                           
  2964                           ;AQM0802.c: 16:     SSP2CON2bits.SEN = 1;
  2965  027E  0143               	movlb	3	; select bank3
  2966  027F  141B               	bsf	27,0	;volatile
  2967  0280                     l15:	
  2968                           ;AQM0802.c: 17:     while(SSP2CON2bits.SEN);
  2969                           
  2970  0280  181B               	btfsc	27,0	;volatile
  2971  0281  2A83               	goto	u21
  2972  0282  2A84               	goto	u20
  2973  0283                     u21:
  2974  0283  2A80               	goto	l15
  2975  0284                     u20:
  2976  0284                     l18:
  2977  0284  0008               	return
  2978  0285                     __end_of_i2cProtocolStart:
  2979                           
  2980                           	psect	text11
  2981  026E                     __ptext11:	
  2982 ;; *************** function _i2cProtocolSendData *****************
  2983 ;; Defined at:
  2984 ;;		line 32 in file "AQM0802.c"
  2985 ;; Parameters:    Size  Location     Type
  2986 ;;  data            1    wreg     unsigned char 
  2987 ;; Auto vars:     Size  Location     Type
  2988 ;;  data            1    1[COMMON] unsigned char 
  2989 ;; Return value:  Size  Location     Type
  2990 ;;                  1    wreg      void 
  2991 ;; Registers used:
  2992 ;;		wreg
  2993 ;; Tracked objects:
  2994 ;;		On entry : 0/0
  2995 ;;		On exit  : 0/0
  2996 ;;		Unchanged: 0/0
  2997 ;; Data sizes:     COMMON   BANK0   BANK1   BANK2   BANK3   BANK4   BANK5   BANK6   BANK7   BANK8   BANK9  BANK10  BANK1
      +1  BANK12  BANK13  BANK14  BANK15  BANK16  BANK17  BANK18  BANK19  BANK20  BANK21  BANK22  BANK23  BANK24  BANK25  BANK2
      +6  BANK27  BANK28  BANK29  BANK30  BANK31  BANK32  BANK33  BANK34  BANK35  BANK36  BANK37  BANK38  BANK39  BANK40  BANK4
      +1  BANK42  BANK43  BANK44  BANK45  BANK46  BANK47  BANK48  BANK49  BANK50
  2998 ;;      Params:         0       0       0       0       0       0       0       0       0       0       0       0       
      +0       0       0       0       0       0       0       0       0       0       0       0       0       0       0       
      +0       0       0       0       0       0       0       0       0       0       0       0       0       0       0       
      +0       0       0       0       0       0       0       0       0       0
  2999 ;;      Locals:         1       0       0       0       0       0       0       0       0       0       0       0       
      +0       0       0       0       0       0       0       0       0       0       0       0       0       0       0       
      +0       0       0       0       0       0       0       0       0       0       0       0       0       0       0       
      +0       0       0       0       0       0       0       0       0       0
  3000 ;;      Temps:          0       0       0       0       0       0       0       0       0       0       0       0       
      +0       0       0       0       0       0       0       0       0       0       0       0       0       0       0       
      +0       0       0       0       0       0       0       0       0       0       0       0       0       0       0       
      +0       0       0       0       0       0       0       0       0       0
  3001 ;;      Totals:         1       0       0       0       0       0       0       0       0       0       0       0       
      +0       0       0       0       0       0       0       0       0       0       0       0       0       0       0       
      +0       0       0       0       0       0       0       0       0       0       0       0       0       0       0       
      +0       0       0       0       0       0       0       0       0       0
  3002 ;;Total ram usage:        1 bytes
  3003 ;; Hardware stack levels used:    1
  3004 ;; Hardware stack levels required when called:    1
  3005 ;; This function calls:
  3006 ;;		Nothing
  3007 ;; This function is called by:
  3008 ;;		_lcdI2CProtocol
  3009 ;; This function uses a non-reentrant model
  3010 ;;
  3011                           
  3012                           
  3013                           ;psect for function _i2cProtocolSendData
  3014  026E                     _i2cProtocolSendData:
  3015                           
  3016                           ;incstack = 0
  3017                           ; Regs used in _i2cProtocolSendData: [wreg]
  3018                           ;i2cProtocolSendData@data stored from wreg
  3019  026E  00F1               	movwf	i2cProtocolSendData@data
  3020  026F                     l900:
  3021                           
  3022                           ;AQM0802.c: 32: void i2cProtocolSendData(uint8_t data);AQM0802.c: 33: {;AQM0802.c: 35:  
      +                             SSP2BUF = data;
  3023  026F  0871               	movf	i2cProtocolSendData@data,w
  3024  0270  0143               	movlb	3	; select bank3
  3025  0271  0096               	movwf	22	;volatile
  3026  0272                     l27:	
  3027                           ;AQM0802.c: 37:     while(SSP2STATbits.RW);
  3028                           
  3029  0272  1919               	btfsc	25,2	;volatile
  3030  0273  2A75               	goto	u41
  3031  0274  2A76               	goto	u40
  3032  0275                     u41:
  3033  0275  2A72               	goto	l27
  3034  0276                     u40:
  3035  0276                     l30:
  3036  0276  0008               	return
  3037  0277                     __end_of_i2cProtocolSendData:
  3038                           
  3039                           	psect	text12
  3040  0023                     __ptext12:	
  3041 ;; *************** function _init *****************
  3042 ;; Defined at:
  3043 ;;		line 130 in file "main.c"
  3044 ;; Parameters:    Size  Location     Type
  3045 ;;		None
  3046 ;; Auto vars:     Size  Location     Type
  3047 ;;		None
  3048 ;; Return value:  Size  Location     Type
  3049 ;;                  1    wreg      void 
  3050 ;; Registers used:
  3051 ;;		wreg, status,2, status,0
  3052 ;; Tracked objects:
  3053 ;;		On entry : 0/0
  3054 ;;		On exit  : 0/0
  3055 ;;		Unchanged: 0/0
  3056 ;; Data sizes:     COMMON   BANK0   BANK1   BANK2   BANK3   BANK4   BANK5   BANK6   BANK7   BANK8   BANK9  BANK10  BANK1
      +1  BANK12  BANK13  BANK14  BANK15  BANK16  BANK17  BANK18  BANK19  BANK20  BANK21  BANK22  BANK23  BANK24  BANK25  BANK2
      +6  BANK27  BANK28  BANK29  BANK30  BANK31  BANK32  BANK33  BANK34  BANK35  BANK36  BANK37  BANK38  BANK39  BANK40  BANK4
      +1  BANK42  BANK43  BANK44  BANK45  BANK46  BANK47  BANK48  BANK49  BANK50
  3057 ;;      Params:         0       0       0       0       0       0       0       0       0       0       0       0       
      +0       0       0       0       0       0       0       0       0       0       0       0       0       0       0       
      +0       0       0       0       0       0       0       0       0       0       0       0       0       0       0       
      +0       0       0       0       0       0       0       0       0       0
  3058 ;;      Locals:         0       0       0       0       0       0       0       0       0       0       0       0       
      +0       0       0       0       0       0       0       0       0       0       0       0       0       0       0       
      +0       0       0       0       0       0       0       0       0       0       0       0       0       0       0       
      +0       0       0       0       0       0       0       0       0       0
  3059 ;;      Temps:          0       0       0       0       0       0       0       0       0       0       0       0       
      +0       0       0       0       0       0       0       0       0       0       0       0       0       0       0       
      +0       0       0       0       0       0       0       0       0       0       0       0       0       0       0       
      +0       0       0       0       0       0       0       0       0       0
  3060 ;;      Totals:         0       0       0       0       0       0       0       0       0       0       0       0       
      +0       0       0       0       0       0       0       0       0       0       0       0       0       0       0       
      +0       0       0       0       0       0       0       0       0       0       0       0       0       0       0       
      +0       0       0       0       0       0       0       0       0       0
  3061 ;;Total ram usage:        0 bytes
  3062 ;; Hardware stack levels used:    1
  3063 ;; Hardware stack levels required when called:    1
  3064 ;; This function calls:
  3065 ;;		Nothing
  3066 ;; This function is called by:
  3067 ;;		_main
  3068 ;; This function uses a non-reentrant model
  3069 ;;
  3070                           
  3071                           
  3072                           ;psect for function _init
  3073  0023                     _init:
  3074  0023                     l990:	
  3075                           ;incstack = 0
  3076                           ; Regs used in _init: [wreg+status,2+status,0]
  3077                           
  3078                           
  3079                           ;main.c: 133:     OSCCON1bits.NOSC = 0b110;
  3080  0023  0151               	movlb	17	; select bank17
  3081  0024  080D               	movf	13,w	;volatile
  3082  0025  398F               	andlw	-113
  3083  0026  3860               	iorlw	96
  3084  0027  008D               	movwf	13	;volatile
  3085                           
  3086                           ;main.c: 134:     OSCCON1bits.NDIV = 0b0000;
  3087  0028  30F0               	movlw	-16
  3088  0029  058D               	andwf	13,f	;volatile
  3089                           
  3090                           ;main.c: 135:     OSCFRQbits.HFFRQ = 0b110;
  3091  002A  0813               	movf	19,w	;volatile
  3092  002B  39F8               	andlw	-8
  3093  002C  3806               	iorlw	6
  3094  002D  0093               	movwf	19	;volatile
  3095  002E                     l992:
  3096                           
  3097                           ;main.c: 138:     ANSELA = 0b00000000;
  3098  002E  017E               	movlb	62	; select bank62
  3099  002F  01B8               	clrf	56	;volatile
  3100  0030                     l994:
  3101                           
  3102                           ;main.c: 139:     ANSELB = 0b00000000;
  3103  0030  01C3               	clrf	67	;volatile
  3104  0031                     l996:
  3105                           
  3106                           ;main.c: 140:     ANSELC = 0b10000000;
  3107  0031  3080               	movlw	128
  3108  0032  00CE               	movwf	78	;volatile
  3109  0033                     l998:
  3110                           
  3111                           ;main.c: 141:     TRISA = 0b00000000;
  3112  0033  0140               	movlb	0	; select bank0
  3113  0034  0191               	clrf	17	;volatile
  3114  0035                     l1000:
  3115                           
  3116                           ;main.c: 142:     TRISB = 0b00000011;
  3117  0035  3003               	movlw	3
  3118  0036  0092               	movwf	18	;volatile
  3119  0037                     l1002:
  3120                           
  3121                           ;main.c: 143:     TRISC = 0b10010001;
  3122  0037  3091               	movlw	145
  3123  0038  0093               	movwf	19	;volatile
  3124  0039                     l1004:
  3125                           
  3126                           ;main.c: 146:     SSP1CON1 = 0b00110000;
  3127  0039  3030               	movlw	48
  3128  003A  0143               	movlb	3	; select bank3
  3129  003B  0090               	movwf	16	;volatile
  3130  003C                     l1006:
  3131                           
  3132                           ;main.c: 147:     SSP1STAT = 0b00000000;
  3133  003C  018F               	clrf	15	;volatile
  3134  003D                     l1008:
  3135                           
  3136                           ;main.c: 155:     SSP2STAT = 0x80;
  3137  003D  3080               	movlw	128
  3138  003E  0099               	movwf	25	;volatile
  3139  003F                     l1010:
  3140                           
  3141                           ;main.c: 156:     SSP2CON1 = 0x28;
  3142  003F  3028               	movlw	40
  3143  0040  009A               	movwf	26	;volatile
  3144  0041                     l1012:
  3145                           
  3146                           ;main.c: 157:     SSP2CON3 = 0x00;
  3147  0041  019C               	clrf	28	;volatile
  3148  0042                     l1014:
  3149                           
  3150                           ;main.c: 158:     SSP2ADD = 0x09;
  3151  0042  3009               	movlw	9
  3152  0043  0097               	movwf	23	;volatile
  3153  0044                     l1016:
  3154                           
  3155                           ;main.c: 161:     ADCON0 = 0b10000100;
  3156  0044  3084               	movlw	132
  3157  0045  0141               	movlb	1	; select bank1
  3158  0046  0093               	movwf	19	;volatile
  3159  0047                     l1018:
  3160                           
  3161                           ;main.c: 162:     ADCLKbits.ADCCS = 0x111111;
  3162  0047  0818               	movf	24,w	;volatile
  3163  0048  39C0               	andlw	-64
  3164  0049  3811               	iorlw	17
  3165  004A  0098               	movwf	24	;volatile
  3166  004B                     l1020:
  3167                           
  3168                           ;main.c: 163:     ADPCH = 0b010111;
  3169  004B  3017               	movlw	23
  3170  004C  009E               	movwf	30	;volatile
  3171  004D                     l1022:
  3172                           
  3173                           ;main.c: 164:     ADREFbits.ADPREF = 0x00;
  3174  004D  30FC               	movlw	-4
  3175  004E  059A               	andwf	26,f	;volatile
  3176  004F                     l1024:
  3177                           
  3178                           ;main.c: 168:     PPSLOCK = 0x55;
  3179  004F  3055               	movlw	85
  3180  0050  017D               	movlb	61	; select bank61
  3181  0051  008F               	movwf	15	;volsfr
  3182  0052                     l1026:
  3183                           
  3184                           ;main.c: 169:     PPSLOCK = 0xAA;
  3185  0052  30AA               	movlw	170
  3186  0053  008F               	movwf	15	;volsfr
  3187  0054                     l1028:
  3188                           
  3189                           ;main.c: 170:     PPSLOCKbits.PPSLOCKED = 0x00;
  3190  0054  100F               	bcf	15,0	;volsfr
  3191  0055                     l1030:
  3192                           
  3193                           ;main.c: 174:     SSP1CLKPPS = 0x16;
  3194  0055  3016               	movlw	22
  3195  0056  00C5               	movwf	69	;volatile
  3196  0057                     l1032:
  3197                           
  3198                           ;main.c: 175:     RC6PPS = 0x14;
  3199  0057  3014               	movlw	20
  3200  0058  017E               	movlb	62	; select bank62
  3201  0059  00A6               	movwf	38	;volatile
  3202  005A                     l1034:
  3203                           
  3204                           ;main.c: 176:     SSP1DATPPS = 0x14;
  3205  005A  3014               	movlw	20
  3206  005B  017D               	movlb	61	; select bank61
  3207  005C  00C6               	movwf	70	;volatile
  3208  005D                     l1036:
  3209                           
  3210                           ;main.c: 177:     RC5PPS = 0x15;
  3211  005D  3015               	movlw	21
  3212  005E  017E               	movlb	62	; select bank62
  3213  005F  00A5               	movwf	37	;volatile
  3214  0060                     l1038:
  3215                           
  3216                           ;main.c: 181:     SSP2DATPPS = 0x08;
  3217  0060  3008               	movlw	8
  3218  0061  017D               	movlb	61	; select bank61
  3219  0062  00C9               	movwf	73	;volatile
  3220  0063                     l1040:
  3221                           
  3222                           ;main.c: 182:     RB0PPS = 0x17;
  3223  0063  3017               	movlw	23
  3224  0064  017E               	movlb	62	; select bank62
  3225  0065  0098               	movwf	24	;volatile
  3226  0066                     l1042:
  3227                           
  3228                           ;main.c: 183:     SSP2CLKPPS = 0x09;
  3229  0066  3009               	movlw	9
  3230  0067  017D               	movlb	61	; select bank61
  3231  0068  00C8               	movwf	72	;volatile
  3232  0069                     l1044:
  3233                           
  3234                           ;main.c: 184:     RB1PPS = 0x16;
  3235  0069  3016               	movlw	22
  3236  006A  017E               	movlb	62	; select bank62
  3237  006B  0099               	movwf	25	;volatile
  3238  006C                     l1046:
  3239                           
  3240                           ;main.c: 187:     RXPPS = 0x10;
  3241  006C  3010               	movlw	16
  3242  006D  017D               	movlb	61	; select bank61
  3243  006E  00CB               	movwf	75	;volatile
  3244  006F                     l1048:
  3245                           
  3246                           ;main.c: 188:     RC1PPS = 0x10;
  3247  006F  3010               	movlw	16
  3248  0070  017E               	movlb	62	; select bank62
  3249  0071  00A1               	movwf	33	;volatile
  3250  0072                     l1050:
  3251                           
  3252                           ;main.c: 191:     PPSLOCK = 0x55;
  3253  0072  3055               	movlw	85
  3254  0073  017D               	movlb	61	; select bank61
  3255  0074  008F               	movwf	15	;volsfr
  3256  0075                     l1052:
  3257                           
  3258                           ;main.c: 192:     PPSLOCK = 0xAA;
  3259  0075  30AA               	movlw	170
  3260  0076  008F               	movwf	15	;volsfr
  3261  0077                     l1054:
  3262                           
  3263                           ;main.c: 193:     PPSLOCKbits.PPSLOCKED = 0x00;
  3264  0077  100F               	bcf	15,0	;volsfr
  3265  0078                     l1056:
  3266                           
  3267                           ;main.c: 196:     TX1STA = 0x20;
  3268  0078  3020               	movlw	32
  3269  0079  0142               	movlb	2	; select bank2
  3270  007A  009E               	movwf	30	;volatile
  3271  007B                     l1058:
  3272                           
  3273                           ;main.c: 197:     TX1STAbits.BRGH = 1;
  3274  007B  151E               	bsf	30,2	;volatile
  3275  007C                     l1060:
  3276                           
  3277                           ;main.c: 198:     RC1STA = 0x90;
  3278  007C  3090               	movlw	144
  3279  007D  009D               	movwf	29	;volatile
  3280  007E                     l1062:
  3281                           
  3282                           ;main.c: 199:     BAUD1CON = 0x08;
  3283  007E  3008               	movlw	8
  3284  007F  009F               	movwf	31	;volatile
  3285  0080                     l1064:
  3286                           
  3287                           ;main.c: 200:     SP1BRG = 68;
  3288  0080  3000               	movlw	0
  3289  0081  009C               	movwf	28	;volatile
  3290  0082  3044               	movlw	68
  3291  0083  009B               	movwf	27	;volatile
  3292  0084                     l1066:
  3293                           
  3294                           ;main.c: 204:     T2CLKCONbits.CS = 0b0001;
  3295  0084  0145               	movlb	5	; select bank5
  3296  0085  0810               	movf	16,w	;volatile
  3297  0086  39F0               	andlw	-16
  3298  0087  3801               	iorlw	1
  3299  0088  0090               	movwf	16	;volatile
  3300  0089                     l1068:
  3301                           
  3302                           ;main.c: 205:     T2CONbits.CKPS = 0b111;
  3303  0089  3070               	movlw	112
  3304  008A  048E               	iorwf	14,f	;volatile
  3305  008B                     l1070:
  3306                           
  3307                           ;main.c: 206:     PR2 = 63;
  3308  008B  303F               	movlw	63
  3309  008C  008D               	movwf	13	;volatile
  3310  008D                     l1072:
  3311                           
  3312                           ;main.c: 209:     RB5PPS = 0x09;
  3313  008D  3009               	movlw	9
  3314  008E  017E               	movlb	62	; select bank62
  3315  008F  009D               	movwf	29	;volatile
  3316  0090                     l1074:
  3317                           
  3318                           ;main.c: 210:     CCPTMRS0bits.C1TSEL = 0b01;
  3319  0090  0144               	movlb	4	; select bank4
  3320  0091  081E               	movf	30,w	;volatile
  3321  0092  39FC               	andlw	-4
  3322  0093  3801               	iorlw	1
  3323  0094  009E               	movwf	30	;volatile
  3324  0095                     l1076:
  3325                           
  3326                           ;main.c: 211:     CCP1CONbits.EN = 1;
  3327  0095  0146               	movlb	6	; select bank6
  3328  0096  178E               	bsf	14,7	;volatile
  3329  0097                     l1078:
  3330                           
  3331                           ;main.c: 212:     CCP1CONbits.FMT = 1;
  3332  0097  160E               	bsf	14,4	;volatile
  3333  0098                     l1080:
  3334                           
  3335                           ;main.c: 213:     CCP1CONbits.MODE = 0b1111;
  3336  0098  300F               	movlw	15
  3337  0099  048E               	iorwf	14,f	;volatile
  3338  009A                     l1082:
  3339                           
  3340                           ;main.c: 214:     CCPR1L = 0;
  3341  009A  018C               	clrf	12	;volatile
  3342  009B                     l1084:
  3343                           
  3344                           ;main.c: 215:     CCPR1H = 0;
  3345  009B  018D               	clrf	13	;volatile
  3346  009C                     l1086:
  3347                           
  3348                           ;main.c: 218:     RB4PPS = 0x0A;
  3349  009C  300A               	movlw	10
  3350  009D  017E               	movlb	62	; select bank62
  3351  009E  009C               	movwf	28	;volatile
  3352  009F                     l1088:
  3353                           
  3354                           ;main.c: 219:     CCPTMRS0bits.C2TSEL = 0b01;
  3355  009F  0144               	movlb	4	; select bank4
  3356  00A0  081E               	movf	30,w	;volatile
  3357  00A1  39F3               	andlw	-13
  3358  00A2  3804               	iorlw	4
  3359  00A3  009E               	movwf	30	;volatile
  3360  00A4                     l1090:
  3361                           
  3362                           ;main.c: 220:     CCP2CONbits.EN = 1;
  3363  00A4  0146               	movlb	6	; select bank6
  3364  00A5  1792               	bsf	18,7	;volatile
  3365  00A6                     l1092:
  3366                           
  3367                           ;main.c: 221:     CCP2CONbits.FMT = 1;
  3368  00A6  1612               	bsf	18,4	;volatile
  3369  00A7                     l1094:
  3370                           
  3371                           ;main.c: 222:     CCP2CONbits.MODE = 0b1111;
  3372  00A7  300F               	movlw	15
  3373  00A8  0492               	iorwf	18,f	;volatile
  3374  00A9                     l1096:
  3375                           
  3376                           ;main.c: 223:     CCPR2L = 0;
  3377  00A9  0190               	clrf	16	;volatile
  3378  00AA                     l1098:
  3379                           
  3380                           ;main.c: 224:     CCPR2H = 0;
  3381  00AA  0191               	clrf	17	;volatile
  3382  00AB                     l1100:
  3383                           
  3384                           ;main.c: 227:     RB3PPS = 0x0B;
  3385  00AB  300B               	movlw	11
  3386  00AC  017E               	movlb	62	; select bank62
  3387  00AD  009B               	movwf	27	;volatile
  3388  00AE                     l1102:
  3389                           
  3390                           ;main.c: 228:     CCPTMRS0bits.C3TSEL = 0b01;
  3391  00AE  0144               	movlb	4	; select bank4
  3392  00AF  081E               	movf	30,w	;volatile
  3393  00B0  39CF               	andlw	-49
  3394  00B1  3810               	iorlw	16
  3395  00B2  009E               	movwf	30	;volatile
  3396  00B3                     l1104:
  3397                           
  3398                           ;main.c: 229:     CCP3CONbits.EN = 1;
  3399  00B3  0146               	movlb	6	; select bank6
  3400  00B4  1796               	bsf	22,7	;volatile
  3401  00B5                     l1106:
  3402                           
  3403                           ;main.c: 230:     CCP3CONbits.FMT = 1;
  3404  00B5  1616               	bsf	22,4	;volatile
  3405  00B6                     l1108:
  3406                           
  3407                           ;main.c: 231:     CCP3CONbits.MODE = 0b1111;
  3408  00B6  300F               	movlw	15
  3409  00B7  0496               	iorwf	22,f	;volatile
  3410  00B8                     l1110:
  3411                           
  3412                           ;main.c: 232:     CCPR3L = 0;
  3413  00B8  0194               	clrf	20	;volatile
  3414  00B9                     l1112:
  3415                           
  3416                           ;main.c: 233:     CCPR3H = 0;
  3417  00B9  0195               	clrf	21	;volatile
  3418  00BA                     l1114:
  3419                           
  3420                           ;main.c: 236:     RB2PPS = 0x0C;
  3421  00BA  300C               	movlw	12
  3422  00BB  017E               	movlb	62	; select bank62
  3423  00BC  009A               	movwf	26	;volatile
  3424  00BD                     l1116:
  3425                           
  3426                           ;main.c: 237:     CCPTMRS0bits.C4TSEL = 0b01;
  3427  00BD  0144               	movlb	4	; select bank4
  3428  00BE  081E               	movf	30,w	;volatile
  3429  00BF  393F               	andlw	-193
  3430  00C0  3840               	iorlw	64
  3431  00C1  009E               	movwf	30	;volatile
  3432  00C2                     l1118:
  3433                           
  3434                           ;main.c: 238:     CCP4CONbits.EN = 1;
  3435  00C2  0146               	movlb	6	; select bank6
  3436  00C3  179A               	bsf	26,7	;volatile
  3437  00C4                     l1120:
  3438                           
  3439                           ;main.c: 239:     CCP4CONbits.FMT = 1;
  3440  00C4  161A               	bsf	26,4	;volatile
  3441  00C5                     l1122:
  3442                           
  3443                           ;main.c: 240:     CCP4CONbits.MODE = 0b1111;
  3444  00C5  300F               	movlw	15
  3445  00C6  049A               	iorwf	26,f	;volatile
  3446  00C7                     l1124:
  3447                           
  3448                           ;main.c: 241:     CCPR4L = 0;
  3449  00C7  0198               	clrf	24	;volatile
  3450  00C8                     l1126:
  3451                           
  3452                           ;main.c: 242:     CCPR4H = 0;
  3453  00C8  0199               	clrf	25	;volatile
  3454  00C9                     l1128:
  3455                           
  3456                           ;main.c: 245:     TMR2ON = 1;
  3457  00C9  0145               	movlb	5	; select bank5
  3458  00CA  178E               	bsf	14,7	;volatile
  3459  00CB                     l1130:
  3460                           
  3461                           ;main.c: 247:     RCIF = 0;
  3462  00CB  014E               	movlb	14	; select bank14
  3463  00CC  128F               	bcf	15,5	;volatile
  3464  00CD                     l1132:
  3465                           
  3466                           ;main.c: 248:     RCIE = 1;
  3467  00CD  1699               	bsf	25,5	;volatile
  3468  00CE                     l1134:
  3469                           
  3470                           ;main.c: 249:     PEIE = 1;
  3471  00CE  170B               	bsf	11,6	;volatile
  3472  00CF                     l1136:
  3473                           
  3474                           ;main.c: 250:     GIE = 1;
  3475  00CF  178B               	bsf	11,7	;volatile
  3476  00D0                     l208:
  3477  00D0  0008               	return
  3478  00D1                     __end_of_init:
  3479                           
  3480                           	psect	intentry
  3481  0004                     __pintentry:	
  3482 ;; *************** function _uart *****************
  3483 ;; Defined at:
  3484 ;;		line 52 in file "main.c"
  3485 ;; Parameters:    Size  Location     Type
  3486 ;;		None
  3487 ;; Auto vars:     Size  Location     Type
  3488 ;;		None
  3489 ;; Return value:  Size  Location     Type
  3490 ;;                  1    wreg      void 
  3491 ;; Registers used:
  3492 ;;		wreg
  3493 ;; Tracked objects:
  3494 ;;		On entry : 0/0
  3495 ;;		On exit  : 0/0
  3496 ;;		Unchanged: 0/0
  3497 ;; Data sizes:     COMMON   BANK0   BANK1   BANK2   BANK3   BANK4   BANK5   BANK6   BANK7   BANK8   BANK9  BANK10  BANK1
      +1  BANK12  BANK13  BANK14  BANK15  BANK16  BANK17  BANK18  BANK19  BANK20  BANK21  BANK22  BANK23  BANK24  BANK25  BANK2
      +6  BANK27  BANK28  BANK29  BANK30  BANK31  BANK32  BANK33  BANK34  BANK35  BANK36  BANK37  BANK38  BANK39  BANK40  BANK4
      +1  BANK42  BANK43  BANK44  BANK45  BANK46  BANK47  BANK48  BANK49  BANK50
  3498 ;;      Params:         0       0       0       0       0       0       0       0       0       0       0       0       
      +0       0       0       0       0       0       0       0       0       0       0       0       0       0       0       
      +0       0       0       0       0       0       0       0       0       0       0       0       0       0       0       
      +0       0       0       0       0       0       0       0       0       0
  3499 ;;      Locals:         0       0       0       0       0       0       0       0       0       0       0       0       
      +0       0       0       0       0       0       0       0       0       0       0       0       0       0       0       
      +0       0       0       0       0       0       0       0       0       0       0       0       0       0       0       
      +0       0       0       0       0       0       0       0       0       0
  3500 ;;      Temps:          1       0       0       0       0       0       0       0       0       0       0       0       
      +0       0       0       0       0       0       0       0       0       0       0       0       0       0       0       
      +0       0       0       0       0       0       0       0       0       0       0       0       0       0       0       
      +0       0       0       0       0       0       0       0       0       0
  3501 ;;      Totals:         1       0       0       0       0       0       0       0       0       0       0       0       
      +0       0       0       0       0       0       0       0       0       0       0       0       0       0       0       
      +0       0       0       0       0       0       0       0       0       0       0       0       0       0       0       
      +0       0       0       0       0       0       0       0       0       0
  3502 ;;Total ram usage:        1 bytes
  3503 ;; Hardware stack levels used:    1
  3504 ;; This function calls:
  3505 ;;		Nothing
  3506 ;; This function is called by:
  3507 ;;		Interrupt level 1
  3508 ;; This function uses a non-reentrant model
  3509 ;;
  3510                           
  3511  0004                     _uart:
  3512                           
  3513                           ;incstack = 0
  3514  0004  147E               	bsf	int$flags,0	;set compiler interrupt flag (level 1)
  3515                           
  3516                           ; Regs used in _uart: [wreg]
  3517  0005  3180               	pagesel	$
  3518  0006                     i1l1164:
  3519                           
  3520                           ;main.c: 54:     if(RCIF)
  3521  0006  014E               	movlb	14	; select bank14
  3522  0007  1E8F               	btfss	15,5	;volatile
  3523  0008  280A               	goto	u14_21
  3524  0009  280B               	goto	u14_20
  3525  000A                     u14_21:
  3526  000A  2812               	goto	i1l197
  3527  000B                     u14_20:
  3528  000B                     i1l1166:
  3529                           
  3530                           ;main.c: 55:     {;main.c: 56:         num = RCREG;
  3531  000B  0142               	movlb	2	; select bank2
  3532  000C  0819               	movf	25,w	;volatile
  3533  000D  00F0               	movwf	??_uart
  3534  000E  0870               	movf	??_uart,w
  3535  000F  00FC               	movwf	_num
  3536  0010                     i1l1168:
  3537                           
  3538                           ;main.c: 57:         RCIF = 0;
  3539  0010  014E               	movlb	14	; select bank14
  3540  0011  128F               	bcf	15,5	;volatile
  3541  0012                     i1l197:
  3542  0012  107E               	bcf	int$flags,0	;clear compiler interrupt flag (level 1)
  3543  0013  0009               	retfie
  3544  0014                     __end_of_uart:
  3545  007E                     btemp	set	126	;btemp
  3546  007E                     int$flags	set	126
  3547  007E                     wtemp0	set	126
  3548                           
  3549                           	psect	config
  3550                           
  3551                           ;Config register CONFIG1 @ 0x8007
  3552                           ;	External Oscillator mode selection bits
  3553                           ;	FEXTOSC = OFF, Oscillator not enabled
  3554                           ;	Power-up default value for COSC bits
  3555                           ;	RSTOSC = HFINT1, HFINTOSC (1MHz)
  3556                           ;	Clock Out Enable bit
  3557                           ;	CLKOUTEN = OFF, CLKOUT function is disabled; i/o or oscillator function on OSC2
  3558                           ;	Clock Switch Enable bit
  3559                           ;	CSWEN = ON, Writing to NOSC and NDIV is allowed
  3560                           ;	Fail-Safe Clock Monitor Enable bit
  3561                           ;	FCMEN = ON, FSCM timer enabled
  3562  8007                     	org	32775
  3563  8007  3FEC               	dw	16364
  3564                           
  3565                           ;Config register CONFIG2 @ 0x8008
  3566                           ;	Master Clear Enable bit
  3567                           ;	MCLRE = OFF, MCLR pin function is port defined function
  3568                           ;	Power-up Timer Enable bit
  3569                           ;	PWRTE = ON, PWRT enabled
  3570                           ;	Low-Power BOR enable bit
  3571                           ;	LPBOREN = OFF, ULPBOR disabled
  3572                           ;	Brown-out reset enable bits
  3573                           ;	BOREN = ON, Brown-out Reset Enabled, SBOREN bit is ignored
  3574                           ;	Brown-out Reset Voltage Selection
  3575                           ;	BORV = LO, Brown-out Reset Voltage (VBOR) set to 1.9V on LF, and 2.45V on F Devices
  3576                           ;	Zero-cross detect disable
  3577                           ;	ZCD = OFF, Zero-cross detect circuit is disabled at POR.
  3578                           ;	Peripheral Pin Select one-way control
  3579                           ;	PPS1WAY = ON, The PPSLOCK bit can be cleared and set only once in software
  3580                           ;	Stack Overflow/Underflow Reset Enable bit
  3581                           ;	STVREN = ON, Stack Overflow or Underflow will cause a reset
  3582                           ;	Background Debugger
  3583                           ;	DEBUG = OFF, Background Debugger disabled
  3584  8008                     	org	32776
  3585  8008  3FFC               	dw	16380
  3586                           
  3587                           ;Config register CONFIG3 @ 0x8009
  3588                           ;	WDT Period Select bits
  3589                           ;	WDTCPS = WDTCPS_31, Divider ratio 1:65536; software control of WDTPS
  3590                           ;	WDT operating mode
  3591                           ;	WDTE = OFF, WDT Disabled, SWDTEN is ignored
  3592                           ;	WDT Window Select bits
  3593                           ;	WDTCWS = WDTCWS_7, window always open (100%); software control; keyed access not requi
      +                          red
  3594                           ;	WDT input clock selector
  3595                           ;	WDTCCS = SC, Software Control
  3596  8009                     	org	32777
  3597  8009  3F9F               	dw	16287
  3598                           
  3599                           ;Config register CONFIG4 @ 0x800A
  3600                           ;	UserNVM self-write protection bits
  3601                           ;	WRT = OFF, Write protection off
  3602                           ;	Scanner Enable bit
  3603                           ;	SCANE = available, Scanner module is available for use
  3604                           ;	Low Voltage Programming Enable bit
  3605                           ;	LVP = ON, Low Voltage programming enabled. MCLR/Vpp pin function is MCLR.
  3606  800A                     	org	32778
  3607  800A  3FFF               	dw	16383
  3608                           
  3609                           ;Config register CONFIG5 @ 0x800B
  3610                           ;	UserNVM Program memory code protection bit
  3611                           ;	CP = OFF, Program Memory code protection disabled
  3612                           ;	DataNVM code protection bit
  3613                           ;	CPD = OFF, Data EEPROM code protection disabled
  3614  800B                     	org	32779
  3615  800B  3FFF               	dw	16383

Data Sizes:
    Strings     27
    Constant    0
    Data        0
    BSS         41
    Persistent  32
    Stack       0

Auto Spaces:
    Space          Size  Autos    Used
    COMMON           14     12      13
    BANK0            80     22      62
    BANK1            80      0       0
    BANK2            80      0       0
    BANK3            80      0       0
    BANK4            80      0       0
    BANK5            80      0       0
    BANK6            80      0       0
    BANK7            80      0       0
    BANK8            80      0       0
    BANK9            80      0       0
    BANK10           80      0       0
    BANK11           80      0       0
    BANK12           80      0       0
    BANK13           80      0       0
    BANK14           80      0       0
    BANK15           80      0       0
    BANK16           80      0       0
    BANK17           80      0       0
    BANK18           80      0       0
    BANK19           80      0       0
    BANK20           80      0       0
    BANK21           80      0       0
    BANK22           80      0       0
    BANK23           80      0       0
    BANK24           80      0       0
    BANK25           80      0       0
    BANK26           80      0       0
    BANK27           80      0       0
    BANK28           80      0       0
    BANK29           80      0       0
    BANK30           80      0       0
    BANK31           80      0       0
    BANK32           80      0       0
    BANK33           80      0       0
    BANK34           80      0       0
    BANK35           80      0       0
    BANK36           80      0       0
    BANK37           80      0       0
    BANK38           80      0       0
    BANK39           80      0       0
    BANK40           80      0       0
    BANK41           80      0       0
    BANK42           80      0       0
    BANK43           80      0       0
    BANK44           80      0       0
    BANK45           80      0       0
    BANK46           80      0       0
    BANK47           80      0       0
    BANK48           80      0       0
    BANK49           80      0       0
    BANK50           80      0       0

Pointer List with Targets:

    vfpfcnvrt@ap	PTR PTR void  size(1) Largest target is 1
		 -> printf@ap(BANK0[1]), 

    S1336_IO_FILE$buffer	PTR unsigned char  size(1) Largest target is 0

    fputc@fp.buffer	PTR unsigned char  size(1) Largest target is 0

    fputc@fp	PTR struct _IO_FILE size(1) Largest target is 0
		 -> NULL(NULL[0]), 

    vfprintf@ap	PTR PTR void  size(1) Largest target is 1
		 -> printf@ap(BANK0[1]), 

    vfprintf@fp	PTR struct _IO_FILE size(1) Largest target is 0
		 -> NULL(NULL[0]), 

    vfprintf@fmt	PTR const unsigned char  size(2) Largest target is 13
		 -> STR_4(CODE[3]), STR_3(CODE[5]), STR_2(CODE[13]), STR_1(CODE[6]), 

    vfprintf@cfmt	PTR unsigned char  size(2) Largest target is 13
		 -> STR_4(CODE[3]), STR_3(CODE[5]), STR_2(CODE[13]), STR_1(CODE[6]), 

    vfpfcnvrt@fp	PTR struct _IO_FILE size(1) Largest target is 0
		 -> NULL(NULL[0]), 

    vfpfcnvrt@fmt	PTR PTR unsigned char  size(1) Largest target is 2
		 -> vfprintf@cfmt(BANK0[2]), 

    printf@fmt	PTR const unsigned char  size(2) Largest target is 13
		 -> STR_4(CODE[3]), STR_3(CODE[5]), STR_2(CODE[13]), STR_1(CODE[6]), 

    printf@ap	PTR void [1] size(1) Largest target is 2
		 -> ?_printf(BANK0[2]), 


Critical Paths under _main in COMMON

    _vfprintf->_vfpfcnvrt
    _vfpfcnvrt->_fputc
    _fputc->_putch
    _lcdInitialize->_lcdSendCommandData
    _lcdSendCommandData->_lcdI2CProtocol
    _lcdI2CProtocol->_i2cProtocolSendData

Critical Paths under _uart in COMMON

    None.

Critical Paths under _main in BANK0

    _main->_printf
    _printf->_vfprintf
    _vfprintf->_vfpfcnvrt

Critical Paths under _uart in BANK0

    None.

Critical Paths under _main in BANK1

    None.

Critical Paths under _uart in BANK1

    None.

Critical Paths under _main in BANK2

    None.

Critical Paths under _uart in BANK2

    None.

Critical Paths under _main in BANK3

    None.

Critical Paths under _uart in BANK3

    None.

Critical Paths under _main in BANK4

    None.

Critical Paths under _uart in BANK4

    None.

Critical Paths under _main in BANK5

    None.

Critical Paths under _uart in BANK5

    None.

Critical Paths under _main in BANK6

    None.

Critical Paths under _uart in BANK6

    None.

Critical Paths under _main in BANK7

    None.

Critical Paths under _uart in BANK7

    None.

Critical Paths under _main in BANK8

    None.

Critical Paths under _uart in BANK8

    None.

Critical Paths under _main in BANK9

    None.

Critical Paths under _uart in BANK9

    None.

Critical Paths under _main in BANK10

    None.

Critical Paths under _uart in BANK10

    None.

Critical Paths under _main in BANK11

    None.

Critical Paths under _uart in BANK11

    None.

Critical Paths under _main in BANK12

    None.

Critical Paths under _uart in BANK12

    None.

Critical Paths under _main in BANK13

    None.

Critical Paths under _uart in BANK13

    None.

Critical Paths under _main in BANK14

    None.

Critical Paths under _uart in BANK14

    None.

Critical Paths under _main in BANK15

    None.

Critical Paths under _uart in BANK15

    None.

Critical Paths under _main in BANK16

    None.

Critical Paths under _uart in BANK16

    None.

Critical Paths under _main in BANK17

    None.

Critical Paths under _uart in BANK17

    None.

Critical Paths under _main in BANK18

    None.

Critical Paths under _uart in BANK18

    None.

Critical Paths under _main in BANK19

    None.

Critical Paths under _uart in BANK19

    None.

Critical Paths under _main in BANK20

    None.

Critical Paths under _uart in BANK20

    None.

Critical Paths under _main in BANK21

    None.

Critical Paths under _uart in BANK21

    None.

Critical Paths under _main in BANK22

    None.

Critical Paths under _uart in BANK22

    None.

Critical Paths under _main in BANK23

    None.

Critical Paths under _uart in BANK23

    None.

Critical Paths under _main in BANK24

    None.

Critical Paths under _uart in BANK24

    None.

Critical Paths under _main in BANK25

    None.

Critical Paths under _uart in BANK25

    None.

Critical Paths under _main in BANK26

    None.

Critical Paths under _uart in BANK26

    None.

Critical Paths under _main in BANK27

    None.

Critical Paths under _uart in BANK27

    None.

Critical Paths under _main in BANK28

    None.

Critical Paths under _uart in BANK28

    None.

Critical Paths under _main in BANK29

    None.

Critical Paths under _uart in BANK29

    None.

Critical Paths under _main in BANK30

    None.

Critical Paths under _uart in BANK30

    None.

Critical Paths under _main in BANK31

    None.

Critical Paths under _uart in BANK31

    None.

Critical Paths under _main in BANK32

    None.

Critical Paths under _uart in BANK32

    None.

Critical Paths under _main in BANK33

    None.

Critical Paths under _uart in BANK33

    None.

Critical Paths under _main in BANK34

    None.

Critical Paths under _uart in BANK34

    None.

Critical Paths under _main in BANK35

    None.

Critical Paths under _uart in BANK35

    None.

Critical Paths under _main in BANK36

    None.

Critical Paths under _uart in BANK36

    None.

Critical Paths under _main in BANK37

    None.

Critical Paths under _uart in BANK37

    None.

Critical Paths under _main in BANK38

    None.

Critical Paths under _uart in BANK38

    None.

Critical Paths under _main in BANK39

    None.

Critical Paths under _uart in BANK39

    None.

Critical Paths under _main in BANK40

    None.

Critical Paths under _uart in BANK40

    None.

Critical Paths under _main in BANK41

    None.

Critical Paths under _uart in BANK41

    None.

Critical Paths under _main in BANK42

    None.

Critical Paths under _uart in BANK42

    None.

Critical Paths under _main in BANK43

    None.

Critical Paths under _uart in BANK43

    None.

Critical Paths under _main in BANK44

    None.

Critical Paths under _uart in BANK44

    None.

Critical Paths under _main in BANK45

    None.

Critical Paths under _uart in BANK45

    None.

Critical Paths under _main in BANK46

    None.

Critical Paths under _uart in BANK46

    None.

Critical Paths under _main in BANK47

    None.

Critical Paths under _uart in BANK47

    None.

Critical Paths under _main in BANK48

    None.

Critical Paths under _uart in BANK48

    None.

Critical Paths under _main in BANK49

    None.

Critical Paths under _uart in BANK49

    None.

Critical Paths under _main in BANK50

    None.

Critical Paths under _uart in BANK50

    None.

Call Graph Tables:

 ---------------------------------------------------------------------------------
 (Depth) Function   	        Calls       Base Space   Used Autos Params    Refs
 ---------------------------------------------------------------------------------
 (0) _main                                                 2     2      0    2677
                                             20 BANK0      2     2      0
                               _init
                      _lcdInitialize
                             _printf
 ---------------------------------------------------------------------------------
 (1) _printf                                               6     4      2    2270
                                             14 BANK0      6     4      2
                           _vfprintf
 ---------------------------------------------------------------------------------
 (2) _vfprintf                                             8     5      3    1835
                                              6 BANK0      8     5      3
                          _vfpfcnvrt
 ---------------------------------------------------------------------------------
 (3) _vfpfcnvrt                                           40    38      2    1409
                                             10 COMMON     2     0      2
                                              0 BANK0      6     6      0
                              _fputc
 ---------------------------------------------------------------------------------
 (4) _fputc                                                8     5      3     895
                                              2 COMMON     8     5      3
                              _putch
 ---------------------------------------------------------------------------------
 (5) _putch                                                1     1      0      31
                                              1 COMMON     1     1      0
 ---------------------------------------------------------------------------------
 (1) _lcdInitialize                                        1     1      0     407
                                              7 COMMON     1     1      0
                 _lcdSendCommandData
 ---------------------------------------------------------------------------------
 (2) _lcdSendCommandData                                   2     2      0     407
                                              5 COMMON     2     2      0
                     _lcdI2CProtocol
 ---------------------------------------------------------------------------------
 (3) _lcdI2CProtocol                                       3     1      2     385
                                              2 COMMON     3     1      2
                _i2cProtocolSendData
                   _i2cProtocolStart
                    _i2cProtocolStop
 ---------------------------------------------------------------------------------
 (4) _i2cProtocolStop                                      0     0      0       0
 ---------------------------------------------------------------------------------
 (4) _i2cProtocolStart                                     0     0      0       0
 ---------------------------------------------------------------------------------
 (4) _i2cProtocolSendData                                  1     1      0      15
                                              1 COMMON     1     1      0
 ---------------------------------------------------------------------------------
 (1) _init                                                 0     0      0       0
 ---------------------------------------------------------------------------------
 Estimated maximum stack depth 5
 ---------------------------------------------------------------------------------
 (Depth) Function   	        Calls       Base Space   Used Autos Params    Refs
 ---------------------------------------------------------------------------------
 (6) _uart                                                 1     1      0       0
                                              0 COMMON     1     1      0
 ---------------------------------------------------------------------------------
 Estimated maximum stack depth 6
 ---------------------------------------------------------------------------------

 Call Graph Graphs:

 _main (ROOT)
   _init
   _lcdInitialize
     _lcdSendCommandData
       _lcdI2CProtocol
         _i2cProtocolSendData
         _i2cProtocolStart
         _i2cProtocolStop
   _printf
     _vfprintf
       _vfpfcnvrt
         _fputc
           _putch

 _uart (ROOT)

 Address spaces:
Name               Size   Autos  Total    Cost      Usage
BIGRAM             FF0      0       0       0        0.0%
EEDATA             100      0       0       0        0.0%
NULL                 0      0       0       0        0.0%
CODE                 0      0       0       0        0.0%
BITCOMMON            E      0       0       1        0.0%
BITSFR0              0      0       0       1        0.0%
SFR0                 0      0       0       1        0.0%
COMMON               E      C       D       2       92.9%
BITSFR1              0      0       0       2        0.0%
SFR1                 0      0       0       2        0.0%
BITSFR2              0      0       0       3        0.0%
SFR2                 0      0       0       3        0.0%
STACK                0      0       0       3        0.0%
BITBANK0            50      0       0       4        0.0%
BITSFR3              0      0       0       4        0.0%
SFR3                 0      0       0       4        0.0%
BANK0               50     16      3E       5       77.5%
BITSFR4              0      0       0       5        0.0%
SFR4                 0      0       0       5        0.0%
BITBANK1            50      0       0       6        0.0%
BITSFR5              0      0       0       6        0.0%
SFR5                 0      0       0       6        0.0%
BANK1               50      0       0       7        0.0%
BITSFR6              0      0       0       7        0.0%
SFR6                 0      0       0       7        0.0%
BITBANK2            50      0       0       8        0.0%
BITSFR7              0      0       0       8        0.0%
SFR7                 0      0       0       8        0.0%
BANK2               50      0       0       9        0.0%
BITSFR8              0      0       0       9        0.0%
SFR8                 0      0       0       9        0.0%
BITBANK3            50      0       0      10        0.0%
BITSFR9              0      0       0      10        0.0%
SFR9                 0      0       0      10        0.0%
BANK3               50      0       0      11        0.0%
BITSFR10             0      0       0      11        0.0%
SFR10                0      0       0      11        0.0%
BITBANK4            50      0       0      12        0.0%
BITSFR11             0      0       0      12        0.0%
SFR11                0      0       0      12        0.0%
BANK4               50      0       0      13        0.0%
BITSFR12             0      0       0      13        0.0%
SFR12                0      0       0      13        0.0%
BITBANK5            50      0       0      14        0.0%
BITSFR13             0      0       0      14        0.0%
SFR13                0      0       0      14        0.0%
BANK5               50      0       0      15        0.0%
BITSFR14             0      0       0      15        0.0%
SFR14                0      0       0      15        0.0%
BITBANK6            50      0       0      16        0.0%
BITSFR15             0      0       0      16        0.0%
SFR15                0      0       0      16        0.0%
BANK6               50      0       0      17        0.0%
BITSFR16             0      0       0      17        0.0%
SFR16                0      0       0      17        0.0%
BITBANK7            50      0       0      18        0.0%
BITSFR17             0      0       0      18        0.0%
SFR17                0      0       0      18        0.0%
BANK7               50      0       0      19        0.0%
BITSFR18             0      0       0      19        0.0%
SFR18                0      0       0      19        0.0%
BITBANK8            50      0       0      20        0.0%
BITSFR19             0      0       0      20        0.0%
SFR19                0      0       0      20        0.0%
BANK8               50      0       0      21        0.0%
BITSFR20             0      0       0      21        0.0%
SFR20                0      0       0      21        0.0%
BITBANK9            50      0       0      22        0.0%
BITSFR21             0      0       0      22        0.0%
SFR21                0      0       0      22        0.0%
BANK9               50      0       0      23        0.0%
BITSFR22             0      0       0      23        0.0%
SFR22                0      0       0      23        0.0%
BITBANK10           50      0       0      24        0.0%
BITSFR23             0      0       0      24        0.0%
SFR23                0      0       0      24        0.0%
BANK10              50      0       0      25        0.0%
BITSFR24             0      0       0      25        0.0%
SFR24                0      0       0      25        0.0%
BITBANK11           50      0       0      26        0.0%
BITSFR25             0      0       0      26        0.0%
SFR25                0      0       0      26        0.0%
BANK11              50      0       0      27        0.0%
BITSFR26             0      0       0      27        0.0%
SFR26                0      0       0      27        0.0%
BITSFR27             0      0       0      28        0.0%
SFR27                0      0       0      28        0.0%
ABS                  0      0      4B      28        0.0%
BITBANK12           50      0       0      29        0.0%
BITSFR28             0      0       0      29        0.0%
SFR28                0      0       0      29        0.0%
BANK12              50      0       0      30        0.0%
BITSFR29             0      0       0      30        0.0%
SFR29                0      0       0      30        0.0%
BITBANK13           50      0       0      31        0.0%
BITSFR30             0      0       0      31        0.0%
SFR30                0      0       0      31        0.0%
BANK13              50      0       0      32        0.0%
BITSFR31             0      0       0      32        0.0%
SFR31                0      0       0      32        0.0%
BITBANK14           50      0       0      33        0.0%
BITSFR32             0      0       0      33        0.0%
SFR32                0      0       0      33        0.0%
BANK14              50      0       0      34        0.0%
BITSFR33             0      0       0      34        0.0%
SFR33                0      0       0      34        0.0%
BITBANK15           50      0       0      35        0.0%
BITSFR34             0      0       0      35        0.0%
SFR34                0      0       0      35        0.0%
BANK15              50      0       0      36        0.0%
BITSFR35             0      0       0      36        0.0%
SFR35                0      0       0      36        0.0%
BITBANK16           50      0       0      37        0.0%
BITSFR36             0      0       0      37        0.0%
SFR36                0      0       0      37        0.0%
BANK16              50      0       0      38        0.0%
BITSFR37             0      0       0      38        0.0%
SFR37                0      0       0      38        0.0%
BITBANK17           50      0       0      39        0.0%
BITSFR38             0      0       0      39        0.0%
SFR38                0      0       0      39        0.0%
BANK17              50      0       0      40        0.0%
BITSFR39             0      0       0      40        0.0%
SFR39                0      0       0      40        0.0%
BITBANK18           50      0       0      41        0.0%
BITSFR40             0      0       0      41        0.0%
SFR40                0      0       0      41        0.0%
BANK18              50      0       0      42        0.0%
BITSFR41             0      0       0      42        0.0%
SFR41                0      0       0      42        0.0%
BITBANK19           50      0       0      43        0.0%
BITSFR42             0      0       0      43        0.0%
SFR42                0      0       0      43        0.0%
BANK19              50      0       0      44        0.0%
BITSFR43             0      0       0      44        0.0%
SFR43                0      0       0      44        0.0%
BITBANK20           50      0       0      45        0.0%
BITSFR44             0      0       0      45        0.0%
SFR44                0      0       0      45        0.0%
BANK20              50      0       0      46        0.0%
BITSFR45             0      0       0      46        0.0%
SFR45                0      0       0      46        0.0%
BITBANK21           50      0       0      47        0.0%
BITSFR46             0      0       0      47        0.0%
SFR46                0      0       0      47        0.0%
BANK21              50      0       0      48        0.0%
BITSFR47             0      0       0      48        0.0%
SFR47                0      0       0      48        0.0%
BITBANK22           50      0       0      49        0.0%
BITSFR48             0      0       0      49        0.0%
SFR48                0      0       0      49        0.0%
BANK22              50      0       0      50        0.0%
BITSFR49             0      0       0      50        0.0%
SFR49                0      0       0      50        0.0%
BITBANK23           50      0       0      51        0.0%
BITSFR50             0      0       0      51        0.0%
SFR50                0      0       0      51        0.0%
BANK23              50      0       0      52        0.0%
BITSFR51             0      0       0      52        0.0%
SFR51                0      0       0      52        0.0%
BITBANK24           50      0       0      53        0.0%
BITSFR52             0      0       0      53        0.0%
SFR52                0      0       0      53        0.0%
BANK24              50      0       0      54        0.0%
BITSFR53             0      0       0      54        0.0%
SFR53                0      0       0      54        0.0%
BITBANK25           50      0       0      55        0.0%
BITSFR54             0      0       0      55        0.0%
SFR54                0      0       0      55        0.0%
BANK25              50      0       0      56        0.0%
BITSFR55             0      0       0      56        0.0%
SFR55                0      0       0      56        0.0%
BITBANK26           50      0       0      57        0.0%
BITSFR56             0      0       0      57        0.0%
SFR56                0      0       0      57        0.0%
BANK26              50      0       0      58        0.0%
BITSFR57             0      0       0      58        0.0%
SFR57                0      0       0      58        0.0%
BITSFR58             0      0       0      59        0.0%
SFR58                0      0       0      59        0.0%
DATA                 0      0      4B      59        0.0%
BITBANK27           50      0       0      60        0.0%
BITSFR59             0      0       0      60        0.0%
SFR59                0      0       0      60        0.0%
BANK27              50      0       0      61        0.0%
BITSFR60             0      0       0      61        0.0%
SFR60                0      0       0      61        0.0%
BITBANK28           50      0       0      62        0.0%
BITSFR61             0      0       0      62        0.0%
SFR61                0      0       0      62        0.0%
BANK28              50      0       0      63        0.0%
BITSFR62             0      0       0      63        0.0%
SFR62                0      0       0      63        0.0%
BITBANK29           50      0       0      64        0.0%
BITSFR63             0      0       0      64        0.0%
SFR63                0      0       0      64        0.0%
BANK29              50      0       0      65        0.0%
BITBANK30           50      0       0      66        0.0%
BANK30              50      0       0      67        0.0%
BITBANK31           50      0       0      68        0.0%
BANK31              50      0       0      69        0.0%
BITBANK32           50      0       0      70        0.0%
BANK32              50      0       0      71        0.0%
BITBANK33           50      0       0      72        0.0%
BANK33              50      0       0      73        0.0%
BITBANK34           50      0       0      74        0.0%
BANK34              50      0       0      75        0.0%
BITBANK35           50      0       0      76        0.0%
BANK35              50      0       0      77        0.0%
BITBANK36           50      0       0      78        0.0%
BANK36              50      0       0      79        0.0%
BITBANK37           50      0       0      80        0.0%
BANK37              50      0       0      81        0.0%
BITBANK38           50      0       0      82        0.0%
BANK38              50      0       0      83        0.0%
BITBANK39           50      0       0      84        0.0%
BANK39              50      0       0      85        0.0%
BITBANK40           50      0       0      86        0.0%
BANK40              50      0       0      87        0.0%
BITBANK41           50      0       0      88        0.0%
BANK41              50      0       0      89        0.0%
BITBANK42           50      0       0      90        0.0%
BANK42              50      0       0      91        0.0%
BITBANK43           50      0       0      92        0.0%
BANK43              50      0       0      93        0.0%
BITBANK44           50      0       0      94        0.0%
BANK44              50      0       0      95        0.0%
BITBANK45           50      0       0      96        0.0%
BANK45              50      0       0      97        0.0%
BITBANK46           50      0       0      98        0.0%
BANK46              50      0       0      99        0.0%
BITBANK47           50      0       0     100        0.0%
BANK47              50      0       0     101        0.0%
BITBANK48           50      0       0     102        0.0%
BANK48              50      0       0     103        0.0%
BITBANK49           50      0       0     104        0.0%
BANK49              50      0       0     105        0.0%
BITBANK50           50      0       0     106        0.0%
BANK50              50      0       0     107        0.0%


Microchip Technology PIC Macro Assembler V2.31 build 20201012212115 
Symbol Table                                                                                   Wed Aug 25 22:10:26 2021

     __end_of_i2cProtocolStop 027E                            l21 0279                            l30 0276  
                          l15 0280                            l24 027D                            l41 0257  
                          l18 0284                            l27 0272                            l38 0236  
                          l47 01FA                            l56 0266                            l59 026D  
                          u20 0284                            u21 0283                            u30 027D  
                          u31 027C                            u40 0276                            u41 0275  
    __end_of_i2cProtocolStart 0285                           l208 00D0                           l900 026F  
                         l823 0248                           l862 0222                           l856 014A  
                         l874 01CE                           l990 0023                           l992 002E  
                         l896 027E                           l994 0030                           l898 0277  
                         _GIE 005F                           l996 0031                           l998 0033  
                         u300 0105                           u301 0104                           u310 021E  
                         u311 021D                           u240 026B                           u241 026A  
                         u250 0195                           u251 0194                           u260 019A  
                         u261 0199                           u270 01A9                           _PR2 028D  
                         u271 01A8                           u327 0157                           u280 01C6  
                         u281 01C5                           u337 017B                           u290 00E4  
                         u347 01EA                           u291 00E3                           u357 0254  
                         u285 01C2                           _num 007C                           wreg 0009  
                        l1000 0035                          l1010 003F                          l1002 0037  
                        l1100 00AB                          l1020 004B                          l1012 0041  
                        l1004 0039                          l1110 00B8                          l1102 00AE  
                        l1030 0055                          l1022 004D                          l1014 0042  
                        l1006 003C                          l1120 00C4                          l1112 00B9  
                        l1104 00B3                          l1040 0063                          l1032 0057  
                        l1024 004F                          l1016 0044                          l1008 003D  
                        l1130 00CB                          l1122 00C5                          l1114 00BA  
                        l1106 00B5                          l1050 0072                          l1042 0066  
                        l1034 005A                          l1026 0052                          l1018 0047  
                        l1210 022B                          l1132 00CD                          l1124 00C7  
                        l1116 00BD                          l1108 00B6                          l1060 007C  
                        l1052 0075                          l1044 0069                          l1036 005D  
                        l1028 0054                          l1212 022F                          l1134 00CE  
                        l1126 00C8                          l1118 00C2                          l1070 008B  
                        l1062 007E                          l1054 0077                          l1046 006C  
                        l1038 0060                          l1214 0233                          l1206 0224  
                        l1136 00CF                          l1128 00C9                          l1080 0098  
                        l1072 008D                          l1064 0080                          l1056 0078  
                        l1048 006F                          l1208 0227                          l1320 0190  
                        l1090 00A4                          l1082 009A                          l1074 0090  
                        l1066 0084                          l1058 007B                          l1250 024A  
                        l1314 0266                          l1330 01C6                          l1322 0195  
                        l1092 00A6                          l1084 009B                          l1076 0095  
                        l1068 0089                          l1252 0253                          l1316 026B  
                        l1324 019A                          l1340 00F0                          l1094 00A7  
                        l1086 009C                          l1078 0097                          l1270 01E7  
                        l1326 019F                          l1342 00F4                          l1334 00D3  
                        l1096 00A9                          l1088 009F                          l1272 01EE  
                        l1328 01A9                          l1360 0141                          l1344 0105  
                        l1352 011D                          l1336 00E4                          l1098 00AA  
                        l1274 01F2                          l1354 0125                          l1346 010D  
                        l1338 00EC                          l1370 0204                          l1276 01F6  
                        l1268 01CF                          l1348 0118                          l1372 0215  
                        l1380 023C                          l1358 0128                          l1374 021E  
                        l1366 01FD                          l1390 0165                          l1368 0201  
                        l1392 016D                          l1384 014B                          l1378 0237  
                        l1394 0175                          l1386 0151                          l1396 0182  
                        l1388 015D                          l1398 018A  __size_of_i2cProtocolSendData 0009  
                        STR_1 0285                          STR_2 0258                          STR_3 0291  
                        STR_4 0296                          _PEIE 005E                          _RCIE 38CD  
                        _RCIF 387D                          _TRMT 08F1            lcdI2CProtocol@data 0073  
                        _dbuf 0020                          _main 014B                          _init 0023  
                        _prec 0044                          _uart 0004                          _nout 0040  
                        fsr0h 0005                          fsr1h 0007                          indf0 0000  
                        fsr0l 0004                          indf1 0001                          fsr1l 0006  
                        btemp 007E                          start 0014            _lcdSendCommandData 0249  
                       ?_main 0070                         ?_init 0070                         _ADPCH 009E  
                       ?_uart 0070           ?_lcdSendCommandData 0070                         i1l197 0012  
                       _RCREG 0119                         u14_20 000B                         u14_21 000A  
                vfpfcnvrt@fmt 007A                         _TRISA 0011                         _TRISB 0012  
                       _TRISC 0013                         _RXPPS 1ECB                         _flags 0046  
                       _fputc 0190                         _width 0042                         _putch 0265  
                       status 0003                         wtemp0 007E          ??_lcdSendCommandData 0075  
             __initialization 0016                  __end_of_main 0190                  __end_of_init 00D1  
                __end_of_uart 0014              ?_i2cProtocolStop 0070                        ??_main 005C  
                      ??_init 0071                        ??_uart 0070                        _ADCON0 0093  
            ??_lcdI2CProtocol 0074                        ?_fputc 0072                        _CCPR1H 030D  
                      _CCPR2H 0311                        _CCPR1L 030C                        _CCPR3H 0315  
                      _CCPR2L 0310                        _CCPR4H 0319                        _CCPR3L 0314  
                      _CCPR4L 0318                        _ANSELA 1F38                        ?_putch 0070  
                      _ANSELB 1F43                        _ANSELC 1F4E                        _RB0PPS 1F18  
                      _RB1PPS 1F19                        _RB2PPS 1F1A                        _RC1PPS 1F21  
                      _RB3PPS 1F1B                        _RC1STA 011D                        _RB4PPS 1F1C  
                      _RB5PPS 1F1D                        _RC5PPS 1F25                        i1l1164 0006  
                      i1l1166 000B                        i1l1168 0010                        _RC6PPS 1F26  
                      _SP1BRG 011B                        _TMR2ON 1477                        _TX1REG 011A  
                      _TX1STA 011E                  _CCPTMRS0bits 021E                  vfprintf@cfmt 0054  
                      _printf 0237                        fputc@c 0072              __end_of_vfprintf 0223  
     __end_of__initialization 001F                __pcstackCOMMON 0070           _i2cProtocolSendData 026E  
               __end_of_fputc 01CF                 __end_of_putch 026E         __end_of_lcdInitialize 01FB  
           ?_i2cProtocolStart 0070            ??_i2cProtocolStart 0071                       ??_fputc 0075  
        ?_i2cProtocolSendData 0070                       ??_putch 0071                    __pbssBANK0 0020  
                _T2CLKCONbits 0290                    __pmaintext 014B                    __pintentry 0004  
                     ?_printf 0056            __size_of_vfpfcnvrt 007A                       _SSP2ADD 0197  
                     _PPSLOCK 1E8F                       _SSP2BUF 0196         ??_i2cProtocolSendData 0071  
                   _ADCLKbits 0098         lcdI2CProtocol@address 0074                     _ADREFbits 009A  
                   ?_vfprintf 004E       i2cProtocolSendData@data 0071                       __ptext1 0237  
                     __ptext2 01FB                       __ptext3 00D1                       __ptext4 0190  
                     __ptext5 0265                       __ptext6 01CF                       __ptext7 0249  
                     __ptext8 0223                       __ptext9 0277               __size_of_printf 0012  
                   _T2CONbits 028E                       clrloop0 028C          end_of_initialization 001F  
                     fputc@fp 0074   __size_of_lcdSendCommandData 000F             __end_of_vfpfcnvrt 014B  
                  ??_vfprintf 0051      __size_of_i2cProtocolStop 0007     lcdSendCommandData@command 0076  
                 _CCP1CONbits 030E                   _CCP2CONbits 0312                   _CCP3CONbits 0316  
                 _CCP4CONbits 031A                   vfpfcnvrt@ap 007B                   vfpfcnvrt@fp 004D  
              __end_of_printf 0249           start_initialization 0016     __size_of_i2cProtocolStart 0007  
     __size_of_lcdI2CProtocol 0014       lcdI2CProtocol@cont_code 0072                   vfprintf@fmt 004E  
                    ??_printf 0058                   __pbssCOMMON 007C                     ___latbits 0004  
               __pcstackBANK0 0048             ??_i2cProtocolStop 0071        __size_of_lcdInitialize 002C  
           __size_of_vfprintf 0028                      _BAUD1CON 011F   __end_of_i2cProtocolSendData 0277  
              __size_of_fputc 003F                __size_of_putch 0009                     clear_ram0 028B  
                    _SSP1CON1 0190                      _SSP2CON1 019A                      _SSP2CON3 019C  
                    _SSP1STAT 018F                      _SSP2STAT 0199                     _vfpfcnvrt 00D1  
               _lcdInitialize 01CF    __end_of_lcdSendCommandData 0258              _i2cProtocolStart 027E  
              _lcdI2CProtocol 0223                    vfprintf@ap 0050                    vfprintf@fp 0053  
                  ?_vfpfcnvrt 007A                ?_lcdInitialize 0070                      __ptext10 027E  
                    __ptext11 026E                      __ptext12 0023                  _SSP2CON2bits 019B  
                 _OSCCON1bits 088D        __end_of_lcdI2CProtocol 0237                 __size_of_main 0045  
               __size_of_init 00AE                 __size_of_uart 0010                      int$flags 007E  
                    _vfprintf 01FB                     printf@fmt 0056                  _SSP2STATbits 0199  
                   putch@data 0071               _i2cProtocolStop 0277                      intlevel1 0000  
             ?_lcdI2CProtocol 0072                   _PPSLOCKbits 1E8F                    _OSCFRQbits 0893  
                    printf@ap 005B                   ??_vfpfcnvrt 0048               ??_lcdInitialize 0077  
               __pstringtext1 0258                 __pstringtext2 0285                 __pstringtext3 0291  
               __pstringtext4 0296                 __pstringtext5 0000                    _SSP1DATPPS 1EC6  
                  _SSP2DATPPS 1EC9                    _SSP1CLKPPS 1EC5                    _SSP2CLKPPS 1EC8  
                  _TX1STAbits 011E  
